TMS320C2000 Assembler PC v15.12.3 Mon Mar 20 21:32:55 2017

Tools Copyright (c) 1996-2015 Texas Instruments Incorporated
C:\Users\Cameron\AppData\Local\Temp\0460811                          PAGE    1

       1              ;***************************************************************
       2              ;* TMS320C2000 C/C++ Codegen                   PC v15.12.3.LTS *
       3              ;* Date/Time created: Mon Mar 20 21:32:54 2017                 *
       4              ;***************************************************************
       5                      .compiler_opts --abi=coffabi --float_support=softlib --hll_source=on --mem_model:code=flat --mem_mode
       6        0002  FP      .set    XAR2
       7              
       8              $C$DW$CU        .dwtag  DW_TAG_compile_unit
       9                      .dwattr $C$DW$CU, DW_AT_name("C:/ti/motorware/motorware_1_01_00_17/sw/solutions/instaspin_foc/src/pro
      10                      .dwattr $C$DW$CU, DW_AT_producer("TI TMS320C2000 C/C++ Codegen PC v15.12.3.LTS Copyright (c) 1996-201
      11                      .dwattr $C$DW$CU, DW_AT_TI_version(0x01)
      12                      .dwattr $C$DW$CU, DW_AT_comp_dir("C:\ti\motorware\motorware_1_01_00_17\sw\solutions\instaspin_foc\boa
      13              ;**************************************************************
      14              ;* CINIT RECORDS                                              *
      15              ;**************************************************************
      16 00000000               .sect   ".cinit"
      17                      .align  1
      18 00000000 FFFF          .field          -1,16
      19 00000001 0000-         .field          _global_speed+0,32
         00000002 0000 
      20 00000003 0000          .bits   0,16                    ; _global_speed @ 0
      21              
      22 00000004               .sect   ".cinit"
      23                      .align  1
      24 00000004 FFFF          .field          -1,16
      25 00000005 0001-         .field          _gCounter_updateGlobals+0,32
         00000006 0000 
      26 00000007 0000          .bits   0,16                    ; _gCounter_updateGlobals @ 0
      27              
      28 00000008               .sect   ".cinit"
      29                      .align  1
      30 00000008 FFFF          .field          -1,16
      31 00000009 0003-         .field          _Flag_Latch_softwareUpdate+0,32
         0000000a 0000 
      32 0000000b 0001          .bits   1,16                    ; _Flag_Latch_softwareUpdate @ 0
      33              
      34 0000000c               .sect   ".cinit"
      35                      .align  1
      36 0000000c FFFF          .field          -1,16
      37 0000000d 0004-         .field          _counter+0,32
         0000000e 0000 
      38 0000000f 0000          .bits   0,16                    ; _counter @ 0
      39              
      40 00000010               .sect   ".cinit"
      41                      .align  1
      42 00000010 FFFF          .field          -1,16
      43 00000011 0005-         .field          _gLEDcnt+0,32
         00000012 0000 
      44 00000013 0000          .bits   0,16                    ; _gLEDcnt @ 0
      45              
      46 00000014               .sect   ".cinit"
      47                      .align  1
      48 00000014 FFFE          .field          -2,16
      49 00000015 000A-         .field          _gMaxCurrentSlope+0,32
         00000016 0000 
TMS320C2000 Assembler PC v15.12.3 Mon Mar 20 21:32:55 2017

Tools Copyright (c) 1996-2015 Texas Instruments Incorporated
C:\Users\Cameron\AppData\Local\Temp\0460811                          PAGE    2

      50 00000017 0000          .bits   0,32                    ; _gMaxCurrentSlope @ 0
         00000018 0000 
      51              
      52 00000019               .sect   ".cinit"
      53                      .align  1
      54 00000019 FFFE          .field          -2,16
      55 0000001a 000E-         .field          _global_krpm+0,32
         0000001b 0000 
      56 0000001c 0000          .xfloat $strtod("0x0p+0")               ; _global_krpm @ 0
         0000001d 0000 
      57              
      58 0000001e               .sect   ".cinit"
      59                      .align  1
      60 0000001e FFFA          .field          -$C$IR_1,16
      61 0000001f 0016-         .field          _gPwmData+0,32
         00000020 0000 
      62 00000021 0000          .bits   0,32                    ; _gPwmData._Tabc._value[0] @ 0
         00000022 0000 
      63 00000023 0000          .bits   0,32                    ; _gPwmData._Tabc._value[1] @ 32
         00000024 0000 
      64 00000025 0000          .bits   0,32                    ; _gPwmData._Tabc._value[2] @ 64
         00000026 0000 
      65        0006  $C$IR_1:        .set    6
      66              
      67 00000027               .sect   ".cinit"
      68                      .align  1
      69 00000027 FF88          .field          -$C$IR_2,16
      70 00000028 0080-         .field          _gMotorVars+0,32
         00000029 0000 
      71 0000002a 0001          .bits   1,16                    ; _gMotorVars._Flag_enableSys @ 0
      72 0000002b 0001          .bits   1,16                    ; _gMotorVars._Flag_Run_Identify @ 16
      73 0000002c 0000          .bits   0,16                    ; _gMotorVars._Flag_MotorIdentified @ 32
      74 0000002d 0001          .bits   1,16                    ; _gMotorVars._Flag_enableForceAngle @ 48
      75 0000002e 0000          .bits   0,16                    ; _gMotorVars._Flag_enableFieldWeakening @ 64
      76 0000002f 0000          .bits   0,16                    ; _gMotorVars._Flag_enableRsRecalc @ 80
      77 00000030 0001          .bits   1,16                    ; _gMotorVars._Flag_enableUserParams @ 96
      78 00000031 0001          .bits   1,16                    ; _gMotorVars._Flag_enableOffsetcalc @ 112
      79 00000032 0000          .bits   0,16                    ; _gMotorVars._Flag_enablePowerWarp @ 128
      80 00000033 0000          .bits   0,16                    ; _gMotorVars._Flag_enableSpeedCtrl @ 144
      81 00000034 0001          .bits   1,16                    ; _gMotorVars._Flag_enableRun @ 160
      82 00000035 0000          .bits   0,16                    ; _gMotorVars._Flag_RunState @ 176
      83 00000036 0000          .bits   0,16                    ; _gMotorVars._Flag_enableFlyingStart @ 192
      84 00000037 0001          .bits   1,16                    ; _gMotorVars._CtrlState @ 208
      85 00000038 0001          .bits   1,16                    ; _gMotorVars._EstState @ 224
      86 00000039 0000          .bits   0,16                    ; _gMotorVars._UserErrorCode @ 240
      87 0000003a 0000          .bits   0,16                    ; _gMotorVars._CtrlVersion._rsvd @ 256
      88 0000003b 0004          .bits   4,16                    ; _gMotorVars._CtrlVersion._targetProc @ 272
      89 0000003c 0000          .bits   0,16                    ; _gMotorVars._CtrlVersion._major @ 288
      90 0000003d 0000          .bits   0,16                    ; _gMotorVars._CtrlVersion._minor @ 304
      91 0000003e 0000          .bits   0,32                    ; _gMotorVars._IdRef_A @ 320
         0000003f 0000 
      92 00000040 0000          .bits   0,32                    ; _gMotorVars._IqRef_A @ 352
         00000041 0000 
      93 00000042 0000          .bits   0,32                    ; _gMotorVars._SpeedRef_pu @ 384
         00000043 0000 
TMS320C2000 Assembler PC v15.12.3 Mon Mar 20 21:32:55 2017

Tools Copyright (c) 1996-2015 Texas Instruments Incorporated
C:\Users\Cameron\AppData\Local\Temp\0460811                          PAGE    3

      94 00000044 0000          .bits   0,32                    ; _gMotorVars._SpeedRef_krpm @ 416
         00000045 0000 
      95 00000046 0000          .bits   0,32                    ; _gMotorVars._SpeedTraj_krpm @ 448
         00000047 0000 
      96 00000048 0000          .bits   167772160,32                    ; _gMotorVars._MaxAccel_krpmps @ 480
         00000049 0A00 
      97 0000004a 0000          .bits   0,32                    ; _gMotorVars._Speed_krpm @ 512
         0000004b 0000 
      98 0000004c 0000          .bits   8388608,32                      ; _gMotorVars._OverModulation @ 544
         0000004d 0080 
      99 0000004e 0000          .bits   50331648,32                     ; _gMotorVars._RsOnLineCurrent_A @ 576
         0000004f 0300 
     100 00000050 0190          .bits   400,32                  ; _gMotorVars._SvgenMaxModulation_ticks @ 608
         00000051 0000 
     101 00000052 0000          .bits   0,32                    ; _gMotorVars._Flux_Wb @ 640
         00000053 0000 
     102 00000054 0000          .bits   0,32                    ; _gMotorVars._Torque_Nm @ 672
         00000055 0000 
     103 00000056 0000          .xfloat $strtod("0x0p+0")               ; _gMotorVars._MagnCurr_A @ 704
         00000057 0000 
     104 00000058 0000          .xfloat $strtod("0x0p+0")               ; _gMotorVars._Rr_Ohm @ 736
         00000059 0000 
     105 0000005a 0000          .xfloat $strtod("0x0p+0")               ; _gMotorVars._Rs_Ohm @ 768
         0000005b 0000 
     106 0000005c 0000          .xfloat $strtod("0x0p+0")               ; _gMotorVars._RsOnLine_Ohm @ 800
         0000005d 0000 
     107 0000005e 0000          .xfloat $strtod("0x0p+0")               ; _gMotorVars._Lsd_H @ 832
         0000005f 0000 
     108 00000060 0000          .xfloat $strtod("0x0p+0")               ; _gMotorVars._Lsq_H @ 864
         00000061 0000 
     109 00000062 0000          .xfloat $strtod("0x0p+0")               ; _gMotorVars._Flux_VpHz @ 896
         00000063 0000 
     110 00000064 0000          .xfloat $strtod("0x0p+0")               ; _gMotorVars._ipd_excFreq_Hz @ 928
         00000065 0000 
     111 00000066 0000          .bits   0,32                    ; _gMotorVars._ipd_Kspd @ 960
         00000067 0000 
     112 00000068 0000          .bits   0,32                    ; _gMotorVars._ipd_excMag_coarse_pu @ 992
         00000069 0000 
     113 0000006a 0000          .bits   0,32                    ; _gMotorVars._ipd_excMag_fine_pu @ 1024
         0000006b 0000 
     114 0000006c 0000          .xfloat $strtod("0x0p+0")               ; _gMotorVars._ipd_waitTime_coarse_sec @ 1056
         0000006d 0000 
     115 0000006e 0000          .xfloat $strtod("0x0p+0")               ; _gMotorVars._ipd_waitTime_fine_sec @ 1088
         0000006f 0000 
     116 00000070 0000          .bits   0,32                    ; _gMotorVars._Kp_spd @ 1120
         00000071 0000 
     117 00000072 0000          .bits   0,32                    ; _gMotorVars._Ki_spd @ 1152
         00000073 0000 
     118 00000074 0000          .bits   0,32                    ; _gMotorVars._Kp_Idq @ 1184
         00000075 0000 
     119 00000076 0000          .bits   0,32                    ; _gMotorVars._Ki_Idq @ 1216
         00000077 0000 
     120 00000078 0000          .bits   0,32                    ; _gMotorVars._Vd @ 1248
         00000079 0000 
     121 0000007a 0000          .bits   0,32                    ; _gMotorVars._Vq @ 1280
TMS320C2000 Assembler PC v15.12.3 Mon Mar 20 21:32:55 2017

Tools Copyright (c) 1996-2015 Texas Instruments Incorporated
C:\Users\Cameron\AppData\Local\Temp\0460811                          PAGE    4

         0000007b 0000 
     122 0000007c 0000          .bits   0,32                    ; _gMotorVars._Vs @ 1312
         0000007d 0000 
     123 0000007e 6666          .bits   6710886,32                      ; _gMotorVars._VsRef @ 1344
         0000007f 0066 
     124 00000080 0000          .bits   0,32                    ; _gMotorVars._VdcBus_kV @ 1376
         00000081 0000 
     125 00000082 0000          .bits   0,32                    ; _gMotorVars._Id_A @ 1408
         00000083 0000 
     126 00000084 0000          .bits   0,32                    ; _gMotorVars._Iq_A @ 1440
         00000085 0000 
     127 00000086 0000          .bits   0,32                    ; _gMotorVars._Is_A @ 1472
         00000087 0000 
     128 00000088 0000          .bits   0,32                    ; _gMotorVars._I_bias._value[0] @ 1504
         00000089 0000 
     129 0000008a 0000          .bits   0,32                    ; _gMotorVars._I_bias._value[1] @ 1536
         0000008b 0000 
     130 0000008c 0000          .bits   0,32                    ; _gMotorVars._I_bias._value[2] @ 1568
         0000008d 0000 
     131 0000008e 0000          .bits   0,32                    ; _gMotorVars._V_bias._value[0] @ 1600
         0000008f 0000 
     132 00000090 0000          .bits   0,32                    ; _gMotorVars._V_bias._value[1] @ 1632
         00000091 0000 
     133 00000092 0000          .bits   0,32                    ; _gMotorVars._V_bias._value[2] @ 1664
         00000093 0000 
     134 00000094 999A          .bits   10066330,32                     ; _gMotorVars._SpeedSet_krpm @ 1696
         00000095 0099 
     135 00000096 0000          .bits   0,32                    ; _gMotorVars._angle_sen_pu @ 1728
         00000097 0000 
     136 00000098 0000          .bits   0,32                    ; _gMotorVars._angle_est_pu @ 1760
         00000099 0000 
     137 0000009a 0000          .bits   0,32                    ; _gMotorVars._speed_sen_pu @ 1792
         0000009b 0000 
     138 0000009c 0000          .bits   0,32                    ; _gMotorVars._speed_est_pu @ 1824
         0000009d 0000 
     139 0000009e 0000          .bits   0,32                    ; _gMotorVars._speedHigh_hall2fast_pu @ 1856
         0000009f 0000 
     140 000000a0 0000          .bits   0,32                    ; _gMotorVars._speedLow_hall2fast_pu @ 1888
         000000a1 0000 
     141        0078  $C$IR_2:        .set    120
     142              
     143              
     144              $C$DW$1 .dwtag  DW_TAG_subprogram
     145                      .dwattr $C$DW$1, DW_AT_name("CTRL_setSpd_ref_krpm")
     146                      .dwattr $C$DW$1, DW_AT_TI_symbol_name("_CTRL_setSpd_ref_krpm")
     147                      .dwattr $C$DW$1, DW_AT_declaration
     148                      .dwattr $C$DW$1, DW_AT_external
     149              $C$DW$2 .dwtag  DW_TAG_formal_parameter
     150                      .dwattr $C$DW$2, DW_AT_type(*$C$DW$T$200)
     151              
     152              $C$DW$3 .dwtag  DW_TAG_formal_parameter
     153                      .dwattr $C$DW$3, DW_AT_type(*$C$DW$T$283)
     154              
     155                      .dwendtag $C$DW$1
     156              
TMS320C2000 Assembler PC v15.12.3 Mon Mar 20 21:32:55 2017

Tools Copyright (c) 1996-2015 Texas Instruments Incorporated
C:\Users\Cameron\AppData\Local\Temp\0460811                          PAGE    5

     157              
     158              $C$DW$4 .dwtag  DW_TAG_subprogram
     159                      .dwattr $C$DW$4, DW_AT_name("CTRL_setup")
     160                      .dwattr $C$DW$4, DW_AT_TI_symbol_name("_CTRL_setup")
     161                      .dwattr $C$DW$4, DW_AT_declaration
     162                      .dwattr $C$DW$4, DW_AT_external
     163              $C$DW$5 .dwtag  DW_TAG_formal_parameter
     164                      .dwattr $C$DW$5, DW_AT_type(*$C$DW$T$200)
     165              
     166                      .dwendtag $C$DW$4
     167              
     168              
     169              $C$DW$6 .dwtag  DW_TAG_subprogram
     170                      .dwattr $C$DW$6, DW_AT_name("CTRL_setParams")
     171                      .dwattr $C$DW$6, DW_AT_TI_symbol_name("_CTRL_setParams")
     172                      .dwattr $C$DW$6, DW_AT_declaration
     173                      .dwattr $C$DW$6, DW_AT_external
     174              $C$DW$7 .dwtag  DW_TAG_formal_parameter
     175                      .dwattr $C$DW$7, DW_AT_type(*$C$DW$T$200)
     176              
     177              $C$DW$8 .dwtag  DW_TAG_formal_parameter
     178                      .dwattr $C$DW$8, DW_AT_type(*$C$DW$T$207)
     179              
     180                      .dwendtag $C$DW$6
     181              
     182              
     183              $C$DW$9 .dwtag  DW_TAG_subprogram
     184                      .dwattr $C$DW$9, DW_AT_name("HAL_enableDebugInt")
     185                      .dwattr $C$DW$9, DW_AT_TI_symbol_name("_HAL_enableDebugInt")
     186                      .dwattr $C$DW$9, DW_AT_declaration
     187                      .dwattr $C$DW$9, DW_AT_external
     188              $C$DW$10        .dwtag  DW_TAG_formal_parameter
     189                      .dwattr $C$DW$10, DW_AT_type(*$C$DW$T$255)
     190              
     191                      .dwendtag $C$DW$9
     192              
     193              
     194              $C$DW$11        .dwtag  DW_TAG_subprogram
     195                      .dwattr $C$DW$11, DW_AT_name("HAL_enableGlobalInts")
     196                      .dwattr $C$DW$11, DW_AT_TI_symbol_name("_HAL_enableGlobalInts")
     197                      .dwattr $C$DW$11, DW_AT_declaration
     198                      .dwattr $C$DW$11, DW_AT_external
     199              $C$DW$12        .dwtag  DW_TAG_formal_parameter
     200                      .dwattr $C$DW$12, DW_AT_type(*$C$DW$T$255)
     201              
     202                      .dwendtag $C$DW$11
     203              
     204              
     205              $C$DW$13        .dwtag  DW_TAG_subprogram
     206                      .dwattr $C$DW$13, DW_AT_name("HAL_enableAdcInts")
     207                      .dwattr $C$DW$13, DW_AT_TI_symbol_name("_HAL_enableAdcInts")
     208                      .dwattr $C$DW$13, DW_AT_declaration
     209                      .dwattr $C$DW$13, DW_AT_external
     210              $C$DW$14        .dwtag  DW_TAG_formal_parameter
     211                      .dwattr $C$DW$14, DW_AT_type(*$C$DW$T$255)
TMS320C2000 Assembler PC v15.12.3 Mon Mar 20 21:32:55 2017

Tools Copyright (c) 1996-2015 Texas Instruments Incorporated
C:\Users\Cameron\AppData\Local\Temp\0460811                          PAGE    6

     212              
     213                      .dwendtag $C$DW$13
     214              
     215              
     216              $C$DW$15        .dwtag  DW_TAG_subprogram
     217                      .dwattr $C$DW$15, DW_AT_name("CTRL_run")
     218                      .dwattr $C$DW$15, DW_AT_TI_symbol_name("_CTRL_run")
     219                      .dwattr $C$DW$15, DW_AT_declaration
     220                      .dwattr $C$DW$15, DW_AT_external
     221              $C$DW$16        .dwtag  DW_TAG_formal_parameter
     222                      .dwattr $C$DW$16, DW_AT_type(*$C$DW$T$200)
     223              
     224              $C$DW$17        .dwtag  DW_TAG_formal_parameter
     225                      .dwattr $C$DW$17, DW_AT_type(*$C$DW$T$255)
     226              
     227              $C$DW$18        .dwtag  DW_TAG_formal_parameter
     228                      .dwattr $C$DW$18, DW_AT_type(*$C$DW$T$249)
     229              
     230              $C$DW$19        .dwtag  DW_TAG_formal_parameter
     231                      .dwattr $C$DW$19, DW_AT_type(*$C$DW$T$260)
     232              
     233                      .dwendtag $C$DW$15
     234              
     235              
     236              $C$DW$20        .dwtag  DW_TAG_subprogram
     237                      .dwattr $C$DW$20, DW_AT_name("CTRL_getVersion")
     238                      .dwattr $C$DW$20, DW_AT_TI_symbol_name("_CTRL_getVersion")
     239                      .dwattr $C$DW$20, DW_AT_declaration
     240                      .dwattr $C$DW$20, DW_AT_external
     241              $C$DW$21        .dwtag  DW_TAG_formal_parameter
     242                      .dwattr $C$DW$21, DW_AT_type(*$C$DW$T$200)
     243              
     244              $C$DW$22        .dwtag  DW_TAG_formal_parameter
     245                      .dwattr $C$DW$22, DW_AT_type(*$C$DW$T$242)
     246              
     247                      .dwendtag $C$DW$20
     248              
     249              
     250              $C$DW$23        .dwtag  DW_TAG_subprogram
     251                      .dwattr $C$DW$23, DW_AT_name("HAL_readDrvData")
     252                      .dwattr $C$DW$23, DW_AT_TI_symbol_name("_HAL_readDrvData")
     253                      .dwattr $C$DW$23, DW_AT_declaration
     254                      .dwattr $C$DW$23, DW_AT_external
     255              $C$DW$24        .dwtag  DW_TAG_formal_parameter
     256                      .dwattr $C$DW$24, DW_AT_type(*$C$DW$T$255)
     257              
     258              $C$DW$25        .dwtag  DW_TAG_formal_parameter
     259                      .dwattr $C$DW$25, DW_AT_type(*$C$DW$T$246)
     260              
     261                      .dwendtag $C$DW$23
     262              
     263              
     264              $C$DW$26        .dwtag  DW_TAG_subprogram
     265                      .dwattr $C$DW$26, DW_AT_name("HAL_setupDrvSpi")
     266                      .dwattr $C$DW$26, DW_AT_TI_symbol_name("_HAL_setupDrvSpi")
TMS320C2000 Assembler PC v15.12.3 Mon Mar 20 21:32:55 2017

Tools Copyright (c) 1996-2015 Texas Instruments Incorporated
C:\Users\Cameron\AppData\Local\Temp\0460811                          PAGE    7

     267                      .dwattr $C$DW$26, DW_AT_declaration
     268                      .dwattr $C$DW$26, DW_AT_external
     269              $C$DW$27        .dwtag  DW_TAG_formal_parameter
     270                      .dwattr $C$DW$27, DW_AT_type(*$C$DW$T$255)
     271              
     272              $C$DW$28        .dwtag  DW_TAG_formal_parameter
     273                      .dwattr $C$DW$28, DW_AT_type(*$C$DW$T$246)
     274              
     275                      .dwendtag $C$DW$26
     276              
     277              
     278              $C$DW$29        .dwtag  DW_TAG_subprogram
     279                      .dwattr $C$DW$29, DW_AT_name("HAL_writeDrvData")
     280                      .dwattr $C$DW$29, DW_AT_TI_symbol_name("_HAL_writeDrvData")
     281                      .dwattr $C$DW$29, DW_AT_declaration
     282                      .dwattr $C$DW$29, DW_AT_external
     283              $C$DW$30        .dwtag  DW_TAG_formal_parameter
     284                      .dwattr $C$DW$30, DW_AT_type(*$C$DW$T$255)
     285              
     286              $C$DW$31        .dwtag  DW_TAG_formal_parameter
     287                      .dwattr $C$DW$31, DW_AT_type(*$C$DW$T$246)
     288              
     289                      .dwendtag $C$DW$29
     290              
     291              
     292              $C$DW$32        .dwtag  DW_TAG_subprogram
     293                      .dwattr $C$DW$32, DW_AT_name("HAL_setupFaults")
     294                      .dwattr $C$DW$32, DW_AT_TI_symbol_name("_HAL_setupFaults")
     295                      .dwattr $C$DW$32, DW_AT_declaration
     296                      .dwattr $C$DW$32, DW_AT_external
     297              $C$DW$33        .dwtag  DW_TAG_formal_parameter
     298                      .dwattr $C$DW$33, DW_AT_type(*$C$DW$T$255)
     299              
     300                      .dwendtag $C$DW$32
     301              
     302              
     303              $C$DW$34        .dwtag  DW_TAG_subprogram
     304                      .dwattr $C$DW$34, DW_AT_name("HAL_enableDrv")
     305                      .dwattr $C$DW$34, DW_AT_TI_symbol_name("_HAL_enableDrv")
     306                      .dwattr $C$DW$34, DW_AT_declaration
     307                      .dwattr $C$DW$34, DW_AT_external
     308              $C$DW$35        .dwtag  DW_TAG_formal_parameter
     309                      .dwattr $C$DW$35, DW_AT_type(*$C$DW$T$255)
     310              
     311                      .dwendtag $C$DW$34
     312              
     313              
     314              $C$DW$36        .dwtag  DW_TAG_subprogram
     315                      .dwattr $C$DW$36, DW_AT_name("HAL_setParams")
     316                      .dwattr $C$DW$36, DW_AT_TI_symbol_name("_HAL_setParams")
     317                      .dwattr $C$DW$36, DW_AT_declaration
     318                      .dwattr $C$DW$36, DW_AT_external
     319              $C$DW$37        .dwtag  DW_TAG_formal_parameter
     320                      .dwattr $C$DW$37, DW_AT_type(*$C$DW$T$255)
     321              
TMS320C2000 Assembler PC v15.12.3 Mon Mar 20 21:32:55 2017

Tools Copyright (c) 1996-2015 Texas Instruments Incorporated
C:\Users\Cameron\AppData\Local\Temp\0460811                          PAGE    8

     322              $C$DW$38        .dwtag  DW_TAG_formal_parameter
     323                      .dwattr $C$DW$38, DW_AT_type(*$C$DW$T$274)
     324              
     325                      .dwendtag $C$DW$36
     326              
     327              
     328              $C$DW$39        .dwtag  DW_TAG_subprogram
     329                      .dwattr $C$DW$39, DW_AT_name("SCI_clearRxFifoOvf")
     330                      .dwattr $C$DW$39, DW_AT_TI_symbol_name("_SCI_clearRxFifoOvf")
     331                      .dwattr $C$DW$39, DW_AT_declaration
     332                      .dwattr $C$DW$39, DW_AT_external
     333              $C$DW$40        .dwtag  DW_TAG_formal_parameter
     334                      .dwattr $C$DW$40, DW_AT_type(*$C$DW$T$151)
     335              
     336                      .dwendtag $C$DW$39
     337              
     338              
     339              $C$DW$41        .dwtag  DW_TAG_subprogram
     340                      .dwattr $C$DW$41, DW_AT_name("USER_setParams")
     341                      .dwattr $C$DW$41, DW_AT_TI_symbol_name("_USER_setParams")
     342                      .dwattr $C$DW$41, DW_AT_declaration
     343                      .dwattr $C$DW$41, DW_AT_external
     344              $C$DW$42        .dwtag  DW_TAG_formal_parameter
     345                      .dwattr $C$DW$42, DW_AT_type(*$C$DW$T$207)
     346              
     347                      .dwendtag $C$DW$41
     348              
     349              
     350              $C$DW$43        .dwtag  DW_TAG_subprogram
     351                      .dwattr $C$DW$43, DW_AT_name("USER_checkForErrors")
     352                      .dwattr $C$DW$43, DW_AT_TI_symbol_name("_USER_checkForErrors")
     353                      .dwattr $C$DW$43, DW_AT_declaration
     354                      .dwattr $C$DW$43, DW_AT_external
     355              $C$DW$44        .dwtag  DW_TAG_formal_parameter
     356                      .dwattr $C$DW$44, DW_AT_type(*$C$DW$T$207)
     357              
     358                      .dwendtag $C$DW$43
     359              
     360              
     361              $C$DW$45        .dwtag  DW_TAG_subprogram
     362                      .dwattr $C$DW$45, DW_AT_name("GPIO_toggle")
     363                      .dwattr $C$DW$45, DW_AT_TI_symbol_name("_GPIO_toggle")
     364                      .dwattr $C$DW$45, DW_AT_declaration
     365                      .dwattr $C$DW$45, DW_AT_external
     366              $C$DW$46        .dwtag  DW_TAG_formal_parameter
     367                      .dwattr $C$DW$46, DW_AT_type(*$C$DW$T$77)
     368              
     369              $C$DW$47        .dwtag  DW_TAG_formal_parameter
     370                      .dwattr $C$DW$47, DW_AT_type(*$C$DW$T$202)
     371              
     372                      .dwendtag $C$DW$45
     373              
     374              
     375              $C$DW$48        .dwtag  DW_TAG_subprogram
     376                      .dwattr $C$DW$48, DW_AT_name("SCI_clearRxFifoInt")
TMS320C2000 Assembler PC v15.12.3 Mon Mar 20 21:32:55 2017

Tools Copyright (c) 1996-2015 Texas Instruments Incorporated
C:\Users\Cameron\AppData\Local\Temp\0460811                          PAGE    9

     377                      .dwattr $C$DW$48, DW_AT_TI_symbol_name("_SCI_clearRxFifoInt")
     378                      .dwattr $C$DW$48, DW_AT_declaration
     379                      .dwattr $C$DW$48, DW_AT_external
     380              $C$DW$49        .dwtag  DW_TAG_formal_parameter
     381                      .dwattr $C$DW$49, DW_AT_type(*$C$DW$T$151)
     382              
     383                      .dwendtag $C$DW$48
     384              
     385              
     386              $C$DW$50        .dwtag  DW_TAG_subprogram
     387                      .dwattr $C$DW$50, DW_AT_name("EST_setFlag_enableRsRecalc")
     388                      .dwattr $C$DW$50, DW_AT_TI_symbol_name("_EST_setFlag_enableRsRecalc")
     389                      .dwattr $C$DW$50, DW_AT_declaration
     390                      .dwattr $C$DW$50, DW_AT_external
     391              $C$DW$51        .dwtag  DW_TAG_formal_parameter
     392                      .dwattr $C$DW$51, DW_AT_type(*$C$DW$T$46)
     393              
     394              $C$DW$52        .dwtag  DW_TAG_formal_parameter
     395                      .dwattr $C$DW$52, DW_AT_type(*$C$DW$T$280)
     396              
     397                      .dwendtag $C$DW$50
     398              
     399              
     400              $C$DW$53        .dwtag  DW_TAG_subprogram
     401                      .dwattr $C$DW$53, DW_AT_name("EST_setMaxCurrentSlope_pu")
     402                      .dwattr $C$DW$53, DW_AT_TI_symbol_name("_EST_setMaxCurrentSlope_pu")
     403                      .dwattr $C$DW$53, DW_AT_declaration
     404                      .dwattr $C$DW$53, DW_AT_external
     405              $C$DW$54        .dwtag  DW_TAG_formal_parameter
     406                      .dwattr $C$DW$54, DW_AT_type(*$C$DW$T$46)
     407              
     408              $C$DW$55        .dwtag  DW_TAG_formal_parameter
     409                      .dwattr $C$DW$55, DW_AT_type(*$C$DW$T$283)
     410              
     411                      .dwendtag $C$DW$53
     412              
     413              
     414              $C$DW$56        .dwtag  DW_TAG_subprogram
     415                      .dwattr $C$DW$56, DW_AT_name("memCopy")
     416                      .dwattr $C$DW$56, DW_AT_TI_symbol_name("_memCopy")
     417                      .dwattr $C$DW$56, DW_AT_declaration
     418                      .dwattr $C$DW$56, DW_AT_external
     419              $C$DW$57        .dwtag  DW_TAG_formal_parameter
     420                      .dwattr $C$DW$57, DW_AT_type(*$C$DW$T$277)
     421              
     422              $C$DW$58        .dwtag  DW_TAG_formal_parameter
     423                      .dwattr $C$DW$58, DW_AT_type(*$C$DW$T$277)
     424              
     425              $C$DW$59        .dwtag  DW_TAG_formal_parameter
     426                      .dwattr $C$DW$59, DW_AT_type(*$C$DW$T$277)
     427              
     428                      .dwendtag $C$DW$56
     429              
     430              
     431              $C$DW$60        .dwtag  DW_TAG_subprogram
TMS320C2000 Assembler PC v15.12.3 Mon Mar 20 21:32:55 2017

Tools Copyright (c) 1996-2015 Texas Instruments Incorporated
C:\Users\Cameron\AppData\Local\Temp\0460811                          PAGE   10

     432                      .dwattr $C$DW$60, DW_AT_name("EST_setFlag_enableForceAngle")
     433                      .dwattr $C$DW$60, DW_AT_TI_symbol_name("_EST_setFlag_enableForceAngle")
     434                      .dwattr $C$DW$60, DW_AT_declaration
     435                      .dwattr $C$DW$60, DW_AT_external
     436              $C$DW$61        .dwtag  DW_TAG_formal_parameter
     437                      .dwattr $C$DW$61, DW_AT_type(*$C$DW$T$46)
     438              
     439              $C$DW$62        .dwtag  DW_TAG_formal_parameter
     440                      .dwattr $C$DW$62, DW_AT_type(*$C$DW$T$280)
     441              
     442                      .dwendtag $C$DW$60
     443              
     444              
     445              $C$DW$63        .dwtag  DW_TAG_subprogram
     446                      .dwattr $C$DW$63, DW_AT_name("USER_softwareUpdate1p6")
     447                      .dwattr $C$DW$63, DW_AT_TI_symbol_name("_USER_softwareUpdate1p6")
     448                      .dwattr $C$DW$63, DW_AT_declaration
     449                      .dwattr $C$DW$63, DW_AT_external
     450              $C$DW$64        .dwtag  DW_TAG_formal_parameter
     451                      .dwattr $C$DW$64, DW_AT_type(*$C$DW$T$200)
     452              
     453                      .dwendtag $C$DW$63
     454              
     455              
     456              $C$DW$65        .dwtag  DW_TAG_subprogram
     457                      .dwattr $C$DW$65, DW_AT_name("USER_calcPIgains")
     458                      .dwattr $C$DW$65, DW_AT_TI_symbol_name("_USER_calcPIgains")
     459                      .dwattr $C$DW$65, DW_AT_declaration
     460                      .dwattr $C$DW$65, DW_AT_external
     461              $C$DW$66        .dwtag  DW_TAG_formal_parameter
     462                      .dwattr $C$DW$66, DW_AT_type(*$C$DW$T$200)
     463              
     464                      .dwendtag $C$DW$65
     465              
     466                      .global _global_speed
     467 00000000       _global_speed:  .usect  ".ebss",1,1,0
     468              $C$DW$67        .dwtag  DW_TAG_variable
     469                      .dwattr $C$DW$67, DW_AT_name("global_speed")
     470                      .dwattr $C$DW$67, DW_AT_TI_symbol_name("_global_speed")
     471                      .dwattr $C$DW$67, DW_AT_location[DW_OP_addr _global_speed]
     472                      .dwattr $C$DW$67, DW_AT_type(*$C$DW$T$10)
     473                      .dwattr $C$DW$67, DW_AT_external
     474              
     475                      .global _gCounter_updateGlobals
     476 00000001       _gCounter_updateGlobals:        .usect  ".ebss",1,1,0
     477              $C$DW$68        .dwtag  DW_TAG_variable
     478                      .dwattr $C$DW$68, DW_AT_name("gCounter_updateGlobals")
     479                      .dwattr $C$DW$68, DW_AT_TI_symbol_name("_gCounter_updateGlobals")
     480                      .dwattr $C$DW$68, DW_AT_location[DW_OP_addr _gCounter_updateGlobals]
     481                      .dwattr $C$DW$68, DW_AT_type(*$C$DW$T$66)
     482                      .dwattr $C$DW$68, DW_AT_external
     483              
     484                      .global _time_count
     485 00000002       _time_count:    .usect  ".ebss",1,1,0
     486              $C$DW$69        .dwtag  DW_TAG_variable
TMS320C2000 Assembler PC v15.12.3 Mon Mar 20 21:32:55 2017

Tools Copyright (c) 1996-2015 Texas Instruments Incorporated
C:\Users\Cameron\AppData\Local\Temp\0460811                          PAGE   11

     487                      .dwattr $C$DW$69, DW_AT_name("time_count")
     488                      .dwattr $C$DW$69, DW_AT_TI_symbol_name("_time_count")
     489                      .dwattr $C$DW$69, DW_AT_location[DW_OP_addr _time_count]
     490                      .dwattr $C$DW$69, DW_AT_type(*$C$DW$T$10)
     491                      .dwattr $C$DW$69, DW_AT_external
     492              
     493                      .global _Flag_Latch_softwareUpdate
     494 00000003       _Flag_Latch_softwareUpdate:     .usect  ".ebss",1,1,0
     495              $C$DW$70        .dwtag  DW_TAG_variable
     496                      .dwattr $C$DW$70, DW_AT_name("Flag_Latch_softwareUpdate")
     497                      .dwattr $C$DW$70, DW_AT_TI_symbol_name("_Flag_Latch_softwareUpdate")
     498                      .dwattr $C$DW$70, DW_AT_location[DW_OP_addr _Flag_Latch_softwareUpdate]
     499                      .dwattr $C$DW$70, DW_AT_type(*$C$DW$T$69)
     500                      .dwattr $C$DW$70, DW_AT_external
     501              
     502              
     503              $C$DW$71        .dwtag  DW_TAG_subprogram
     504                      .dwattr $C$DW$71, DW_AT_name("EST_getState")
     505                      .dwattr $C$DW$71, DW_AT_TI_symbol_name("_EST_getState")
     506                      .dwattr $C$DW$71, DW_AT_type(*$C$DW$T$163)
     507                      .dwattr $C$DW$71, DW_AT_declaration
     508                      .dwattr $C$DW$71, DW_AT_external
     509              $C$DW$72        .dwtag  DW_TAG_formal_parameter
     510                      .dwattr $C$DW$72, DW_AT_type(*$C$DW$T$46)
     511              
     512                      .dwendtag $C$DW$71
     513              
     514              
     515              $C$DW$73        .dwtag  DW_TAG_subprogram
     516                      .dwattr $C$DW$73, DW_AT_name("EST_isMotorIdentified")
     517                      .dwattr $C$DW$73, DW_AT_TI_symbol_name("_EST_isMotorIdentified")
     518                      .dwattr $C$DW$73, DW_AT_type(*$C$DW$T$69)
     519                      .dwattr $C$DW$73, DW_AT_declaration
     520                      .dwattr $C$DW$73, DW_AT_external
     521              $C$DW$74        .dwtag  DW_TAG_formal_parameter
     522                      .dwattr $C$DW$74, DW_AT_type(*$C$DW$T$46)
     523              
     524                      .dwendtag $C$DW$73
     525              
     526                      .global _counter
     527 00000004       _counter:       .usect  ".ebss",1,1,0
     528              $C$DW$75        .dwtag  DW_TAG_variable
     529                      .dwattr $C$DW$75, DW_AT_name("counter")
     530                      .dwattr $C$DW$75, DW_AT_TI_symbol_name("_counter")
     531                      .dwattr $C$DW$75, DW_AT_location[DW_OP_addr _counter]
     532                      .dwattr $C$DW$75, DW_AT_type(*$C$DW$T$10)
     533                      .dwattr $C$DW$75, DW_AT_external
     534              
     535                      .global _gLEDcnt
     536 00000005       _gLEDcnt:       .usect  ".ebss",1,1,0
     537              $C$DW$76        .dwtag  DW_TAG_variable
     538                      .dwattr $C$DW$76, DW_AT_name("gLEDcnt")
     539                      .dwattr $C$DW$76, DW_AT_TI_symbol_name("_gLEDcnt")
     540                      .dwattr $C$DW$76, DW_AT_location[DW_OP_addr _gLEDcnt]
     541                      .dwattr $C$DW$76, DW_AT_type(*$C$DW$T$22)
TMS320C2000 Assembler PC v15.12.3 Mon Mar 20 21:32:55 2017

Tools Copyright (c) 1996-2015 Texas Instruments Incorporated
C:\Users\Cameron\AppData\Local\Temp\0460811                          PAGE   12

     542                      .dwattr $C$DW$76, DW_AT_external
     543              
     544              
     545              $C$DW$77        .dwtag  DW_TAG_subprogram
     546                      .dwattr $C$DW$77, DW_AT_name("USER_getErrorCode")
     547                      .dwattr $C$DW$77, DW_AT_TI_symbol_name("_USER_getErrorCode")
     548                      .dwattr $C$DW$77, DW_AT_type(*$C$DW$T$165)
     549                      .dwattr $C$DW$77, DW_AT_declaration
     550                      .dwattr $C$DW$77, DW_AT_external
     551              $C$DW$78        .dwtag  DW_TAG_formal_parameter
     552                      .dwattr $C$DW$78, DW_AT_type(*$C$DW$T$207)
     553              
     554                      .dwendtag $C$DW$77
     555              
     556              
     557              $C$DW$79        .dwtag  DW_TAG_subprogram
     558                      .dwattr $C$DW$79, DW_AT_name("CTRL_updateState")
     559                      .dwattr $C$DW$79, DW_AT_TI_symbol_name("_CTRL_updateState")
     560                      .dwattr $C$DW$79, DW_AT_type(*$C$DW$T$69)
     561                      .dwattr $C$DW$79, DW_AT_declaration
     562                      .dwattr $C$DW$79, DW_AT_external
     563              $C$DW$80        .dwtag  DW_TAG_formal_parameter
     564                      .dwattr $C$DW$80, DW_AT_type(*$C$DW$T$200)
     565              
     566                      .dwendtag $C$DW$79
     567              
     568              
     569              $C$DW$81        .dwtag  DW_TAG_subprogram
     570                      .dwattr $C$DW$81, DW_AT_name("SCI_getRxFifoStatus")
     571                      .dwattr $C$DW$81, DW_AT_TI_symbol_name("_SCI_getRxFifoStatus")
     572                      .dwattr $C$DW$81, DW_AT_type(*$C$DW$T$221)
     573                      .dwattr $C$DW$81, DW_AT_declaration
     574                      .dwattr $C$DW$81, DW_AT_external
     575              $C$DW$82        .dwtag  DW_TAG_formal_parameter
     576                      .dwattr $C$DW$82, DW_AT_type(*$C$DW$T$151)
     577              
     578                      .dwendtag $C$DW$81
     579              
     580                      .global _gTorque_Ls_Id_Iq_pu_to_Nm_sf
     581 00000006       _gTorque_Ls_Id_Iq_pu_to_Nm_sf:  .usect  ".ebss",2,1,1
     582              $C$DW$83        .dwtag  DW_TAG_variable
     583                      .dwattr $C$DW$83, DW_AT_name("gTorque_Ls_Id_Iq_pu_to_Nm_sf")
     584                      .dwattr $C$DW$83, DW_AT_TI_symbol_name("_gTorque_Ls_Id_Iq_pu_to_Nm_sf")
     585                      .dwattr $C$DW$83, DW_AT_location[DW_OP_addr _gTorque_Ls_Id_Iq_pu_to_Nm_sf]
     586                      .dwattr $C$DW$83, DW_AT_type(*$C$DW$T$31)
     587                      .dwattr $C$DW$83, DW_AT_external
     588              
     589              
     590              $C$DW$84        .dwtag  DW_TAG_subprogram
     591                      .dwattr $C$DW$84, DW_AT_name("EST_get_pu_to_krpm_sf")
     592                      .dwattr $C$DW$84, DW_AT_TI_symbol_name("_EST_get_pu_to_krpm_sf")
     593                      .dwattr $C$DW$84, DW_AT_type(*$C$DW$T$31)
     594                      .dwattr $C$DW$84, DW_AT_declaration
     595                      .dwattr $C$DW$84, DW_AT_external
     596              $C$DW$85        .dwtag  DW_TAG_formal_parameter
TMS320C2000 Assembler PC v15.12.3 Mon Mar 20 21:32:55 2017

Tools Copyright (c) 1996-2015 Texas Instruments Incorporated
C:\Users\Cameron\AppData\Local\Temp\0460811                          PAGE   13

     597                      .dwattr $C$DW$85, DW_AT_type(*$C$DW$T$46)
     598              
     599                      .dwendtag $C$DW$84
     600              
     601                      .global _gTorque_Flux_Iq_pu_to_Nm_sf
     602 00000008       _gTorque_Flux_Iq_pu_to_Nm_sf:   .usect  ".ebss",2,1,1
     603              $C$DW$86        .dwtag  DW_TAG_variable
     604                      .dwattr $C$DW$86, DW_AT_name("gTorque_Flux_Iq_pu_to_Nm_sf")
     605                      .dwattr $C$DW$86, DW_AT_TI_symbol_name("_gTorque_Flux_Iq_pu_to_Nm_sf")
     606                      .dwattr $C$DW$86, DW_AT_location[DW_OP_addr _gTorque_Flux_Iq_pu_to_Nm_sf]
     607                      .dwattr $C$DW$86, DW_AT_type(*$C$DW$T$31)
     608                      .dwattr $C$DW$86, DW_AT_external
     609              
     610              
     611              $C$DW$87        .dwtag  DW_TAG_subprogram
     612                      .dwattr $C$DW$87, DW_AT_name("__IQsat")
     613                      .dwattr $C$DW$87, DW_AT_TI_symbol_name("___IQsat")
     614                      .dwattr $C$DW$87, DW_AT_type(*$C$DW$T$12)
     615                      .dwattr $C$DW$87, DW_AT_declaration
     616                      .dwattr $C$DW$87, DW_AT_external
     617              $C$DW$88        .dwtag  DW_TAG_formal_parameter
     618                      .dwattr $C$DW$88, DW_AT_type(*$C$DW$T$12)
     619              
     620              $C$DW$89        .dwtag  DW_TAG_formal_parameter
     621                      .dwattr $C$DW$89, DW_AT_type(*$C$DW$T$12)
     622              
     623              $C$DW$90        .dwtag  DW_TAG_formal_parameter
     624                      .dwattr $C$DW$90, DW_AT_type(*$C$DW$T$12)
     625              
     626                      .dwendtag $C$DW$87
     627              
     628              
     629              $C$DW$91        .dwtag  DW_TAG_subprogram
     630                      .dwattr $C$DW$91, DW_AT_name("EST_getFlux_VpHz")
     631                      .dwattr $C$DW$91, DW_AT_TI_symbol_name("_EST_getFlux_VpHz")
     632                      .dwattr $C$DW$91, DW_AT_type(*$C$DW$T$67)
     633                      .dwattr $C$DW$91, DW_AT_declaration
     634                      .dwattr $C$DW$91, DW_AT_external
     635              $C$DW$92        .dwtag  DW_TAG_formal_parameter
     636                      .dwattr $C$DW$92, DW_AT_type(*$C$DW$T$46)
     637              
     638                      .dwendtag $C$DW$91
     639              
     640              
     641              $C$DW$93        .dwtag  DW_TAG_subprogram
     642                      .dwattr $C$DW$93, DW_AT_name("__IQmpy")
     643                      .dwattr $C$DW$93, DW_AT_TI_symbol_name("___IQmpy")
     644                      .dwattr $C$DW$93, DW_AT_type(*$C$DW$T$12)
     645                      .dwattr $C$DW$93, DW_AT_declaration
     646                      .dwattr $C$DW$93, DW_AT_external
     647              $C$DW$94        .dwtag  DW_TAG_formal_parameter
     648                      .dwattr $C$DW$94, DW_AT_type(*$C$DW$T$12)
     649              
     650              $C$DW$95        .dwtag  DW_TAG_formal_parameter
     651                      .dwattr $C$DW$95, DW_AT_type(*$C$DW$T$12)
TMS320C2000 Assembler PC v15.12.3 Mon Mar 20 21:32:55 2017

Tools Copyright (c) 1996-2015 Texas Instruments Incorporated
C:\Users\Cameron\AppData\Local\Temp\0460811                          PAGE   14

     652              
     653              $C$DW$96        .dwtag  DW_TAG_formal_parameter
     654                      .dwattr $C$DW$96, DW_AT_type(*$C$DW$T$10)
     655              
     656                      .dwendtag $C$DW$93
     657              
     658              $C$DW$97        .dwtag  DW_TAG_variable
     659                      .dwattr $C$DW$97, DW_AT_name("RamfuncsLoadEnd")
     660                      .dwattr $C$DW$97, DW_AT_TI_symbol_name("_RamfuncsLoadEnd")
     661                      .dwattr $C$DW$97, DW_AT_type(*$C$DW$T$277)
     662                      .dwattr $C$DW$97, DW_AT_declaration
     663                      .dwattr $C$DW$97, DW_AT_external
     664              
     665              $C$DW$98        .dwtag  DW_TAG_variable
     666                      .dwattr $C$DW$98, DW_AT_name("RamfuncsRunStart")
     667                      .dwattr $C$DW$98, DW_AT_TI_symbol_name("_RamfuncsRunStart")
     668                      .dwattr $C$DW$98, DW_AT_type(*$C$DW$T$277)
     669                      .dwattr $C$DW$98, DW_AT_declaration
     670                      .dwattr $C$DW$98, DW_AT_external
     671              
     672                      .global _gMaxCurrentSlope
     673 0000000a       _gMaxCurrentSlope:      .usect  ".ebss",2,1,1
     674              $C$DW$99        .dwtag  DW_TAG_variable
     675                      .dwattr $C$DW$99, DW_AT_name("gMaxCurrentSlope")
     676                      .dwattr $C$DW$99, DW_AT_TI_symbol_name("_gMaxCurrentSlope")
     677                      .dwattr $C$DW$99, DW_AT_location[DW_OP_addr _gMaxCurrentSlope]
     678                      .dwattr $C$DW$99, DW_AT_type(*$C$DW$T$31)
     679                      .dwattr $C$DW$99, DW_AT_external
     680              
     681              $C$DW$100       .dwtag  DW_TAG_variable
     682                      .dwattr $C$DW$100, DW_AT_name("RamfuncsLoadStart")
     683                      .dwattr $C$DW$100, DW_AT_TI_symbol_name("_RamfuncsLoadStart")
     684                      .dwattr $C$DW$100, DW_AT_type(*$C$DW$T$277)
     685                      .dwattr $C$DW$100, DW_AT_declaration
     686                      .dwattr $C$DW$100, DW_AT_external
     687              
     688                      .global _halHandle
     689 0000000c       _halHandle:     .usect  ".ebss",2,1,1
     690              $C$DW$101       .dwtag  DW_TAG_variable
     691                      .dwattr $C$DW$101, DW_AT_name("halHandle")
     692                      .dwattr $C$DW$101, DW_AT_TI_symbol_name("_halHandle")
     693                      .dwattr $C$DW$101, DW_AT_location[DW_OP_addr _halHandle]
     694                      .dwattr $C$DW$101, DW_AT_type(*$C$DW$T$255)
     695                      .dwattr $C$DW$101, DW_AT_external
     696              
     697                      .global _global_krpm
     698 0000000e       _global_krpm:   .usect  ".ebss",2,1,1
     699              $C$DW$102       .dwtag  DW_TAG_variable
     700                      .dwattr $C$DW$102, DW_AT_name("global_krpm")
     701                      .dwattr $C$DW$102, DW_AT_TI_symbol_name("_global_krpm")
     702                      .dwattr $C$DW$102, DW_AT_location[DW_OP_addr _global_krpm]
     703                      .dwattr $C$DW$102, DW_AT_type(*$C$DW$T$16)
     704                      .dwattr $C$DW$102, DW_AT_external
     705              
     706              
TMS320C2000 Assembler PC v15.12.3 Mon Mar 20 21:32:55 2017

Tools Copyright (c) 1996-2015 Texas Instruments Incorporated
C:\Users\Cameron\AppData\Local\Temp\0460811                          PAGE   15

     707              $C$DW$103       .dwtag  DW_TAG_subprogram
     708                      .dwattr $C$DW$103, DW_AT_name("EST_getIdRated")
     709                      .dwattr $C$DW$103, DW_AT_TI_symbol_name("_EST_getIdRated")
     710                      .dwattr $C$DW$103, DW_AT_type(*$C$DW$T$67)
     711                      .dwattr $C$DW$103, DW_AT_declaration
     712                      .dwattr $C$DW$103, DW_AT_external
     713              $C$DW$104       .dwtag  DW_TAG_formal_parameter
     714                      .dwattr $C$DW$104, DW_AT_type(*$C$DW$T$46)
     715              
     716                      .dwendtag $C$DW$103
     717              
     718                      .global _gFlux_pu_to_Wb_sf
     719 00000010       _gFlux_pu_to_Wb_sf:     .usect  ".ebss",2,1,1
     720              $C$DW$105       .dwtag  DW_TAG_variable
     721                      .dwattr $C$DW$105, DW_AT_name("gFlux_pu_to_Wb_sf")
     722                      .dwattr $C$DW$105, DW_AT_TI_symbol_name("_gFlux_pu_to_Wb_sf")
     723                      .dwattr $C$DW$105, DW_AT_location[DW_OP_addr _gFlux_pu_to_Wb_sf]
     724                      .dwattr $C$DW$105, DW_AT_type(*$C$DW$T$31)
     725                      .dwattr $C$DW$105, DW_AT_external
     726              
     727                      .global _gFlux_pu_to_VpHz_sf
     728 00000012       _gFlux_pu_to_VpHz_sf:   .usect  ".ebss",2,1,1
     729              $C$DW$106       .dwtag  DW_TAG_variable
     730                      .dwattr $C$DW$106, DW_AT_name("gFlux_pu_to_VpHz_sf")
     731                      .dwattr $C$DW$106, DW_AT_TI_symbol_name("_gFlux_pu_to_VpHz_sf")
     732                      .dwattr $C$DW$106, DW_AT_location[DW_OP_addr _gFlux_pu_to_VpHz_sf]
     733                      .dwattr $C$DW$106, DW_AT_type(*$C$DW$T$31)
     734                      .dwattr $C$DW$106, DW_AT_external
     735              
     736              
     737              $C$DW$107       .dwtag  DW_TAG_subprogram
     738                      .dwattr $C$DW$107, DW_AT_name("USER_computeFlux_pu_to_Wb_sf")
     739                      .dwattr $C$DW$107, DW_AT_TI_symbol_name("_USER_computeFlux_pu_to_Wb_sf")
     740                      .dwattr $C$DW$107, DW_AT_type(*$C$DW$T$31)
     741                      .dwattr $C$DW$107, DW_AT_declaration
     742                      .dwattr $C$DW$107, DW_AT_external
     743                      .dwendtag $C$DW$107
     744              
     745              
     746              $C$DW$108       .dwtag  DW_TAG_subprogram
     747                      .dwattr $C$DW$108, DW_AT_name("USER_computeTorque_Ls_Id_Iq_pu_to_Nm_sf")
     748                      .dwattr $C$DW$108, DW_AT_TI_symbol_name("_USER_computeTorque_Ls_Id_Iq_pu_to_Nm_sf")
     749                      .dwattr $C$DW$108, DW_AT_type(*$C$DW$T$31)
     750                      .dwattr $C$DW$108, DW_AT_declaration
     751                      .dwattr $C$DW$108, DW_AT_external
     752                      .dwendtag $C$DW$108
     753              
     754              
     755              $C$DW$109       .dwtag  DW_TAG_subprogram
     756                      .dwattr $C$DW$109, DW_AT_name("CTRL_initCtrl")
     757                      .dwattr $C$DW$109, DW_AT_TI_symbol_name("_CTRL_initCtrl")
     758                      .dwattr $C$DW$109, DW_AT_type(*$C$DW$T$200)
     759                      .dwattr $C$DW$109, DW_AT_declaration
     760                      .dwattr $C$DW$109, DW_AT_external
     761              $C$DW$110       .dwtag  DW_TAG_formal_parameter
TMS320C2000 Assembler PC v15.12.3 Mon Mar 20 21:32:55 2017

Tools Copyright (c) 1996-2015 Texas Instruments Incorporated
C:\Users\Cameron\AppData\Local\Temp\0460811                          PAGE   16

     762                      .dwattr $C$DW$110, DW_AT_type(*$C$DW$T$235)
     763              
     764              $C$DW$111       .dwtag  DW_TAG_formal_parameter
     765                      .dwattr $C$DW$111, DW_AT_type(*$C$DW$T$3)
     766              
     767              $C$DW$112       .dwtag  DW_TAG_formal_parameter
     768                      .dwattr $C$DW$112, DW_AT_type(*$C$DW$T$237)
     769              
     770                      .dwendtag $C$DW$109
     771              
     772              
     773              $C$DW$113       .dwtag  DW_TAG_subprogram
     774                      .dwattr $C$DW$113, DW_AT_name("USER_computeTorque_Nm")
     775                      .dwattr $C$DW$113, DW_AT_TI_symbol_name("_USER_computeTorque_Nm")
     776                      .dwattr $C$DW$113, DW_AT_type(*$C$DW$T$31)
     777                      .dwattr $C$DW$113, DW_AT_declaration
     778                      .dwattr $C$DW$113, DW_AT_external
     779              $C$DW$114       .dwtag  DW_TAG_formal_parameter
     780                      .dwattr $C$DW$114, DW_AT_type(*$C$DW$T$200)
     781              
     782              $C$DW$115       .dwtag  DW_TAG_formal_parameter
     783                      .dwattr $C$DW$115, DW_AT_type(*$C$DW$T$283)
     784              
     785              $C$DW$116       .dwtag  DW_TAG_formal_parameter
     786                      .dwattr $C$DW$116, DW_AT_type(*$C$DW$T$283)
     787              
     788                      .dwendtag $C$DW$113
     789              
     790              
     791              $C$DW$117       .dwtag  DW_TAG_subprogram
     792                      .dwattr $C$DW$117, DW_AT_name("USER_computeFlux")
     793                      .dwattr $C$DW$117, DW_AT_TI_symbol_name("_USER_computeFlux")
     794                      .dwattr $C$DW$117, DW_AT_type(*$C$DW$T$31)
     795                      .dwattr $C$DW$117, DW_AT_declaration
     796                      .dwattr $C$DW$117, DW_AT_external
     797              $C$DW$118       .dwtag  DW_TAG_formal_parameter
     798                      .dwattr $C$DW$118, DW_AT_type(*$C$DW$T$200)
     799              
     800              $C$DW$119       .dwtag  DW_TAG_formal_parameter
     801                      .dwattr $C$DW$119, DW_AT_type(*$C$DW$T$283)
     802              
     803                      .dwendtag $C$DW$117
     804              
     805              
     806              $C$DW$120       .dwtag  DW_TAG_subprogram
     807                      .dwattr $C$DW$120, DW_AT_name("EST_getRr_Ohm")
     808                      .dwattr $C$DW$120, DW_AT_TI_symbol_name("_EST_getRr_Ohm")
     809                      .dwattr $C$DW$120, DW_AT_type(*$C$DW$T$67)
     810                      .dwattr $C$DW$120, DW_AT_declaration
     811                      .dwattr $C$DW$120, DW_AT_external
     812              $C$DW$121       .dwtag  DW_TAG_formal_parameter
     813                      .dwattr $C$DW$121, DW_AT_type(*$C$DW$T$46)
     814              
     815                      .dwendtag $C$DW$120
     816              
TMS320C2000 Assembler PC v15.12.3 Mon Mar 20 21:32:55 2017

Tools Copyright (c) 1996-2015 Texas Instruments Incorporated
C:\Users\Cameron\AppData\Local\Temp\0460811                          PAGE   17

     817              
     818              $C$DW$122       .dwtag  DW_TAG_subprogram
     819                      .dwattr $C$DW$122, DW_AT_name("EST_getMaxCurrentSlope_pu")
     820                      .dwattr $C$DW$122, DW_AT_TI_symbol_name("_EST_getMaxCurrentSlope_pu")
     821                      .dwattr $C$DW$122, DW_AT_type(*$C$DW$T$31)
     822                      .dwattr $C$DW$122, DW_AT_declaration
     823                      .dwattr $C$DW$122, DW_AT_external
     824              $C$DW$123       .dwtag  DW_TAG_formal_parameter
     825                      .dwattr $C$DW$123, DW_AT_type(*$C$DW$T$46)
     826              
     827                      .dwendtag $C$DW$122
     828              
     829              
     830              $C$DW$124       .dwtag  DW_TAG_subprogram
     831                      .dwattr $C$DW$124, DW_AT_name("USER_computeTorque_Flux_Iq_pu_to_Nm_sf")
     832                      .dwattr $C$DW$124, DW_AT_TI_symbol_name("_USER_computeTorque_Flux_Iq_pu_to_Nm_sf")
     833                      .dwattr $C$DW$124, DW_AT_type(*$C$DW$T$31)
     834                      .dwattr $C$DW$124, DW_AT_declaration
     835                      .dwattr $C$DW$124, DW_AT_external
     836                      .dwendtag $C$DW$124
     837              
     838              
     839              $C$DW$125       .dwtag  DW_TAG_subprogram
     840                      .dwattr $C$DW$125, DW_AT_name("EST_getLs_d_H")
     841                      .dwattr $C$DW$125, DW_AT_TI_symbol_name("_EST_getLs_d_H")
     842                      .dwattr $C$DW$125, DW_AT_type(*$C$DW$T$67)
     843                      .dwattr $C$DW$125, DW_AT_declaration
     844                      .dwattr $C$DW$125, DW_AT_external
     845              $C$DW$126       .dwtag  DW_TAG_formal_parameter
     846                      .dwattr $C$DW$126, DW_AT_type(*$C$DW$T$46)
     847              
     848                      .dwendtag $C$DW$125
     849              
     850                      .global _ctrlHandle
     851 00000014       _ctrlHandle:    .usect  ".ebss",2,1,1
     852              $C$DW$127       .dwtag  DW_TAG_variable
     853                      .dwattr $C$DW$127, DW_AT_name("ctrlHandle")
     854                      .dwattr $C$DW$127, DW_AT_TI_symbol_name("_ctrlHandle")
     855                      .dwattr $C$DW$127, DW_AT_location[DW_OP_addr _ctrlHandle]
     856                      .dwattr $C$DW$127, DW_AT_type(*$C$DW$T$200)
     857                      .dwattr $C$DW$127, DW_AT_external
     858              
     859              
     860              $C$DW$128       .dwtag  DW_TAG_subprogram
     861                      .dwattr $C$DW$128, DW_AT_name("EST_getRs_Ohm")
     862                      .dwattr $C$DW$128, DW_AT_TI_symbol_name("_EST_getRs_Ohm")
     863                      .dwattr $C$DW$128, DW_AT_type(*$C$DW$T$67)
     864                      .dwattr $C$DW$128, DW_AT_declaration
     865                      .dwattr $C$DW$128, DW_AT_external
     866              $C$DW$129       .dwtag  DW_TAG_formal_parameter
     867                      .dwattr $C$DW$129, DW_AT_type(*$C$DW$T$46)
     868              
     869                      .dwendtag $C$DW$128
     870              
     871              
TMS320C2000 Assembler PC v15.12.3 Mon Mar 20 21:32:55 2017

Tools Copyright (c) 1996-2015 Texas Instruments Incorporated
C:\Users\Cameron\AppData\Local\Temp\0460811                          PAGE   18

     872              $C$DW$130       .dwtag  DW_TAG_subprogram
     873                      .dwattr $C$DW$130, DW_AT_name("EST_getLs_q_H")
     874                      .dwattr $C$DW$130, DW_AT_TI_symbol_name("_EST_getLs_q_H")
     875                      .dwattr $C$DW$130, DW_AT_type(*$C$DW$T$67)
     876                      .dwattr $C$DW$130, DW_AT_declaration
     877                      .dwattr $C$DW$130, DW_AT_external
     878              $C$DW$131       .dwtag  DW_TAG_formal_parameter
     879                      .dwattr $C$DW$131, DW_AT_type(*$C$DW$T$46)
     880              
     881                      .dwendtag $C$DW$130
     882              
     883              
     884              $C$DW$132       .dwtag  DW_TAG_subprogram
     885                      .dwattr $C$DW$132, DW_AT_name("HAL_init")
     886                      .dwattr $C$DW$132, DW_AT_TI_symbol_name("_HAL_init")
     887                      .dwattr $C$DW$132, DW_AT_type(*$C$DW$T$255)
     888                      .dwattr $C$DW$132, DW_AT_declaration
     889                      .dwattr $C$DW$132, DW_AT_external
     890              $C$DW$133       .dwtag  DW_TAG_formal_parameter
     891                      .dwattr $C$DW$133, DW_AT_type(*$C$DW$T$3)
     892              
     893              $C$DW$134       .dwtag  DW_TAG_formal_parameter
     894                      .dwattr $C$DW$134, DW_AT_type(*$C$DW$T$237)
     895              
     896                      .dwendtag $C$DW$132
     897              
     898              
     899              $C$DW$135       .dwtag  DW_TAG_subprogram
     900                      .dwattr $C$DW$135, DW_AT_name("USER_computeFlux_pu_to_VpHz_sf")
     901                      .dwattr $C$DW$135, DW_AT_TI_symbol_name("_USER_computeFlux_pu_to_VpHz_sf")
     902                      .dwattr $C$DW$135, DW_AT_type(*$C$DW$T$31)
     903                      .dwattr $C$DW$135, DW_AT_declaration
     904                      .dwattr $C$DW$135, DW_AT_external
     905                      .dwendtag $C$DW$135
     906              
     907              
     908              $C$DW$136       .dwtag  DW_TAG_subprogram
     909                      .dwattr $C$DW$136, DW_AT_name("EST_getSpeed_krpm")
     910                      .dwattr $C$DW$136, DW_AT_TI_symbol_name("_EST_getSpeed_krpm")
     911                      .dwattr $C$DW$136, DW_AT_type(*$C$DW$T$31)
     912                      .dwattr $C$DW$136, DW_AT_declaration
     913                      .dwattr $C$DW$136, DW_AT_external
     914              $C$DW$137       .dwtag  DW_TAG_formal_parameter
     915                      .dwattr $C$DW$137, DW_AT_type(*$C$DW$T$46)
     916              
     917                      .dwendtag $C$DW$136
     918              
     919                      .global _gPwmData
     920 00000016       _gPwmData:      .usect  ".ebss",6,1,1
     921              $C$DW$138       .dwtag  DW_TAG_variable
     922                      .dwattr $C$DW$138, DW_AT_name("gPwmData")
     923                      .dwattr $C$DW$138, DW_AT_TI_symbol_name("_gPwmData")
     924                      .dwattr $C$DW$138, DW_AT_location[DW_OP_addr _gPwmData]
     925                      .dwattr $C$DW$138, DW_AT_type(*$C$DW$T$259)
     926                      .dwattr $C$DW$138, DW_AT_external
TMS320C2000 Assembler PC v15.12.3 Mon Mar 20 21:32:55 2017

Tools Copyright (c) 1996-2015 Texas Instruments Incorporated
C:\Users\Cameron\AppData\Local\Temp\0460811                          PAGE   19

     927              
     928                      .global _gAdcData
     929 0000001c       _gAdcData:      .usect  ".ebss",14,1,1
     930              $C$DW$139       .dwtag  DW_TAG_variable
     931                      .dwattr $C$DW$139, DW_AT_name("gAdcData")
     932                      .dwattr $C$DW$139, DW_AT_TI_symbol_name("_gAdcData")
     933                      .dwattr $C$DW$139, DW_AT_location[DW_OP_addr _gAdcData]
     934                      .dwattr $C$DW$139, DW_AT_type(*$C$DW$T$145)
     935                      .dwattr $C$DW$139, DW_AT_external
     936              
     937                      .global _gDrvSpi8301Vars
     938 00000040       _gDrvSpi8301Vars:       .usect  ".ebss",24,1,0
     939              $C$DW$140       .dwtag  DW_TAG_variable
     940                      .dwattr $C$DW$140, DW_AT_name("gDrvSpi8301Vars")
     941                      .dwattr $C$DW$140, DW_AT_TI_symbol_name("_gDrvSpi8301Vars")
     942                      .dwattr $C$DW$140, DW_AT_location[DW_OP_addr _gDrvSpi8301Vars]
     943                      .dwattr $C$DW$140, DW_AT_type(*$C$DW$T$245)
     944                      .dwattr $C$DW$140, DW_AT_external
     945              
     946                      .global _gMotorVars
     947 00000080       _gMotorVars:    .usect  ".ebss",120,1,1
     948              $C$DW$141       .dwtag  DW_TAG_variable
     949                      .dwattr $C$DW$141, DW_AT_name("gMotorVars")
     950                      .dwattr $C$DW$141, DW_AT_TI_symbol_name("_gMotorVars")
     951                      .dwattr $C$DW$141, DW_AT_location[DW_OP_addr _gMotorVars]
     952                      .dwattr $C$DW$141, DW_AT_type(*$C$DW$T$263)
     953                      .dwattr $C$DW$141, DW_AT_external
     954              
     955                      .global _gUserParams
     956 00000100       _gUserParams:   .usect  ".ebss",172,1,1
     957              $C$DW$142       .dwtag  DW_TAG_variable
     958                      .dwattr $C$DW$142, DW_AT_name("gUserParams")
     959                      .dwattr $C$DW$142, DW_AT_TI_symbol_name("_gUserParams")
     960                      .dwattr $C$DW$142, DW_AT_location[DW_OP_addr _gUserParams]
     961                      .dwattr $C$DW$142, DW_AT_type(*$C$DW$T$206)
     962                      .dwattr $C$DW$142, DW_AT_external
     963              
     964              $C$DW$143       .dwtag  DW_TAG_variable
     965                      .dwattr $C$DW$143, DW_AT_name("hal")
     966                      .dwattr $C$DW$143, DW_AT_TI_symbol_name("_hal")
     967                      .dwattr $C$DW$143, DW_AT_type(*$C$DW$T$252)
     968                      .dwattr $C$DW$143, DW_AT_declaration
     969                      .dwattr $C$DW$143, DW_AT_external
     970              
     971                      .global _ctrl
     972 000001c0       _ctrl:  .usect  ".ebss",264,1,1
     973              $C$DW$144       .dwtag  DW_TAG_variable
     974                      .dwattr $C$DW$144, DW_AT_name("ctrl")
     975                      .dwattr $C$DW$144, DW_AT_TI_symbol_name("_ctrl")
     976                      .dwattr $C$DW$144, DW_AT_location[DW_OP_addr _ctrl]
     977                      .dwattr $C$DW$144, DW_AT_type(*$C$DW$T$232)
     978                      .dwattr $C$DW$144, DW_AT_external
     979              
     980              ;       C:\ti\ccsv6\tools\compiler\c2000_15.12.3.LTS\bin\opt2000.exe C:\\Users\\Cameron\\AppData\\Local\\Temp
     981              ;       C:\ti\ccsv6\tools\compiler\c2000_15.12.3.LTS\bin\ac2000.exe -@C:\\Users\\Cameron\\AppData\\Local\\Tem
TMS320C2000 Assembler PC v15.12.3 Mon Mar 20 21:32:55 2017

Tools Copyright (c) 1996-2015 Texas Instruments Incorporated
C:\Users\Cameron\AppData\Local\Temp\0460811                          PAGE   20

     982 00000000               .sect   ".text"
     983                      .clink
     984                      .global _updateKpKiGains
     985              
     986              $C$DW$145       .dwtag  DW_TAG_subprogram
     987                      .dwattr $C$DW$145, DW_AT_name("updateKpKiGains")
     988                      .dwattr $C$DW$145, DW_AT_low_pc(_updateKpKiGains)
     989                      .dwattr $C$DW$145, DW_AT_high_pc(0x00)
     990                      .dwattr $C$DW$145, DW_AT_TI_symbol_name("_updateKpKiGains")
     991                      .dwattr $C$DW$145, DW_AT_external
     992                      .dwattr $C$DW$145, DW_AT_TI_begin_file("C:/ti/motorware/motorware_1_01_00_17/sw/solutions/instaspin_f
     993                      .dwattr $C$DW$145, DW_AT_TI_begin_line(0x24c)
     994                      .dwattr $C$DW$145, DW_AT_TI_begin_column(0x06)
     995                      .dwattr $C$DW$145, DW_AT_TI_max_frame_size(-2)
     996                      .dwpsn  file "C:/ti/motorware/motorware_1_01_00_17/sw/solutions/instaspin_foc/src/proj_lab05b.c",line
     997              
     998                      .dwfde $C$DW$CIE, _updateKpKiGains
     999              $C$DW$146       .dwtag  DW_TAG_formal_parameter
    1000                      .dwattr $C$DW$146, DW_AT_name("handle")
    1001                      .dwattr $C$DW$146, DW_AT_TI_symbol_name("_handle")
    1002                      .dwattr $C$DW$146, DW_AT_type(*$C$DW$T$200)
    1003                      .dwattr $C$DW$146, DW_AT_location[DW_OP_reg12]
    1004              
    1005              
    1006              ;***************************************************************
    1007              ;* FNAME: _updateKpKiGains              FR SIZE:   0           *
    1008              ;*                                                             *
    1009              ;* FUNCTION ENVIRONMENT                                        *
    1010              ;*                                                             *
    1011              ;* FUNCTION PROPERTIES                                         *
    1012              ;*                            0 Parameter,  0 Auto,  0 SOE     *
    1013              ;***************************************************************
    1014              
    1015              _updateKpKiGains:
    1016              ;* AR4   assigned to _handle
    1017              $C$DW$147       .dwtag  DW_TAG_variable
    1018                      .dwattr $C$DW$147, DW_AT_name("handle")
    1019                      .dwattr $C$DW$147, DW_AT_TI_symbol_name("_handle")
    1020                      .dwattr $C$DW$147, DW_AT_type(*$C$DW$T$234)
    1021                      .dwattr $C$DW$147, DW_AT_location[DW_OP_reg12]
    1022              
    1023              ;* AL    assigned to _Ki
    1024              $C$DW$148       .dwtag  DW_TAG_variable
    1025                      .dwattr $C$DW$148, DW_AT_name("Ki")
    1026                      .dwattr $C$DW$148, DW_AT_TI_symbol_name("_Ki")
    1027                      .dwattr $C$DW$148, DW_AT_type(*$C$DW$T$31)
    1028                      .dwattr $C$DW$148, DW_AT_location[DW_OP_reg0]
    1029              
    1030              ;* AL    assigned to _Kp
    1031              $C$DW$149       .dwtag  DW_TAG_variable
    1032                      .dwattr $C$DW$149, DW_AT_name("Kp")
    1033                      .dwattr $C$DW$149, DW_AT_TI_symbol_name("_Kp")
    1034                      .dwattr $C$DW$149, DW_AT_type(*$C$DW$T$31)
    1035                      .dwattr $C$DW$149, DW_AT_location[DW_OP_reg0]
    1036              
TMS320C2000 Assembler PC v15.12.3 Mon Mar 20 21:32:55 2017

Tools Copyright (c) 1996-2015 Texas Instruments Incorporated
C:\Users\Cameron\AppData\Local\Temp\0460811                          PAGE   21

    1037              ;* AL    assigned to _Ki
    1038              $C$DW$150       .dwtag  DW_TAG_variable
    1039                      .dwattr $C$DW$150, DW_AT_name("Ki")
    1040                      .dwattr $C$DW$150, DW_AT_TI_symbol_name("_Ki")
    1041                      .dwattr $C$DW$150, DW_AT_type(*$C$DW$T$31)
    1042                      .dwattr $C$DW$150, DW_AT_location[DW_OP_reg0]
    1043              
    1044              ;* AL    assigned to _Kp
    1045              $C$DW$151       .dwtag  DW_TAG_variable
    1046                      .dwattr $C$DW$151, DW_AT_name("Kp")
    1047                      .dwattr $C$DW$151, DW_AT_TI_symbol_name("_Kp")
    1048                      .dwattr $C$DW$151, DW_AT_type(*$C$DW$T$31)
    1049                      .dwattr $C$DW$151, DW_AT_location[DW_OP_reg0]
    1050              
    1051              ;* AL    assigned to _Ki
    1052              $C$DW$152       .dwtag  DW_TAG_variable
    1053                      .dwattr $C$DW$152, DW_AT_name("Ki")
    1054                      .dwattr $C$DW$152, DW_AT_TI_symbol_name("_Ki")
    1055                      .dwattr $C$DW$152, DW_AT_type(*$C$DW$T$31)
    1056                      .dwattr $C$DW$152, DW_AT_location[DW_OP_reg0]
    1057              
    1058              ;* AL    assigned to _Kp
    1059              $C$DW$153       .dwtag  DW_TAG_variable
    1060                      .dwattr $C$DW$153, DW_AT_name("Kp")
    1061                      .dwattr $C$DW$153, DW_AT_TI_symbol_name("_Kp")
    1062                      .dwattr $C$DW$153, DW_AT_type(*$C$DW$T$31)
    1063                      .dwattr $C$DW$153, DW_AT_location[DW_OP_reg0]
    1064              
    1065                      .dwcfi  cfa_offset, -2
    1066                      .dwcfi  save_reg_to_mem, 26, 0
    1067 00000000 761F-         MOVW      DP,#_gMotorVars+13    ; [CPU_U] 
         00000001 0002 
    1068                      .dwpsn  file "C:/ti/motorware/motorware_1_01_00_17/sw/solutions/instaspin_foc/src/proj_lab05b.c",line
    1069 00000002 920D-         MOV       AL,@_gMotorVars+13    ; [CPU_] |590| 
    1070 00000003 5203          CMPB      AL,#3                 ; [CPU_] |590| 
    1071 00000004 601D          B         $C$L1,NEQ             ; [CPU_] |590| 
    1072                      ; branchcc occurs ; [] |590| 
    1073 00000005 9202-         MOV       AL,@_gMotorVars+2     ; [CPU_] |590| 
    1074 00000006 5201          CMPB      AL,#1                 ; [CPU_] |590| 
    1075 00000007 601A          B         $C$L1,NEQ             ; [CPU_] |590| 
    1076                      ; branchcc occurs ; [] |590| 
    1077 00000008 761F-         MOVW      DP,#_Flag_Latch_softwareUpdate ; [CPU_U] 
         00000009 0000 
    1078 0000000a 9203-         MOV       AL,@_Flag_Latch_softwareUpdate ; [CPU_] |590| 
    1079 0000000b 5201          CMPB      AL,#1                 ; [CPU_] |590| 
    1080 0000000c 6115          B         $C$L1,EQ              ; [CPU_] |590| 
    1081                      ; branchcc occurs ; [] |590| 
    1082 0000000d 761F-         MOVW      DP,#_gMotorVars+70    ; [CPU_U] 
         0000000e 0003 
    1083                      .dwpsn  file "C:/ti/motorware/motorware_1_01_00_17/sw/modules/ctrl/src/32b/ctrl.h",line 1505,column 7
    1084 0000000f D0CE          MOVB      XAR0,#206             ; [CPU_] |1505| 
    1085                      .dwpsn  file "C:/ti/motorware/motorware_1_01_00_17/sw/solutions/instaspin_foc/src/proj_lab05b.c",line
    1086 00000010 0606-         MOVL      ACC,@_gMotorVars+70   ; [CPU_] |593| 
    1087                      .dwpsn  file "C:/ti/motorware/motorware_1_01_00_17/sw/modules/ctrl/src/32b/ctrl.h",line 1505,column 7
    1088 00000011 1E94          MOVL      *+XAR4[AR0],ACC       ; [CPU_] |1505| 
TMS320C2000 Assembler PC v15.12.3 Mon Mar 20 21:32:55 2017

Tools Copyright (c) 1996-2015 Texas Instruments Incorporated
C:\Users\Cameron\AppData\Local\Temp\0460811                          PAGE   22

    1089                      .dwpsn  file "C:/ti/motorware/motorware_1_01_00_17/sw/modules/ctrl/src/32b/ctrl.h",line 1480,column 7
    1090 00000012 D0D4          MOVB      XAR0,#212             ; [CPU_] |1480| 
    1091                      .dwpsn  file "C:/ti/motorware/motorware_1_01_00_17/sw/solutions/instaspin_foc/src/proj_lab05b.c",line
    1092 00000013 0608-         MOVL      ACC,@_gMotorVars+72   ; [CPU_] |594| 
    1093                      .dwpsn  file "C:/ti/motorware/motorware_1_01_00_17/sw/modules/ctrl/src/32b/ctrl.h",line 1480,column 7
    1094 00000014 1E94          MOVL      *+XAR4[AR0],ACC       ; [CPU_] |1480| 
    1095                      .dwpsn  file "C:/ti/motorware/motorware_1_01_00_17/sw/modules/ctrl/src/32b/ctrl.h",line 1509,column 7
    1096 00000015 D0CA          MOVB      XAR0,#202             ; [CPU_] |1509| 
    1097                      .dwpsn  file "C:/ti/motorware/motorware_1_01_00_17/sw/solutions/instaspin_foc/src/proj_lab05b.c",line
    1098 00000016 060A-         MOVL      ACC,@_gMotorVars+74   ; [CPU_] |597| 
    1099                      .dwpsn  file "C:/ti/motorware/motorware_1_01_00_17/sw/modules/ctrl/src/32b/ctrl.h",line 1509,column 7
    1100 00000017 1E94          MOVL      *+XAR4[AR0],ACC       ; [CPU_] |1509| 
    1101                      .dwpsn  file "C:/ti/motorware/motorware_1_01_00_17/sw/modules/ctrl/src/32b/ctrl.h",line 1484,column 7
    1102 00000018 D0D0          MOVB      XAR0,#208             ; [CPU_] |1484| 
    1103                      .dwpsn  file "C:/ti/motorware/motorware_1_01_00_17/sw/solutions/instaspin_foc/src/proj_lab05b.c",line
    1104 00000019 060C-         MOVL      ACC,@_gMotorVars+76   ; [CPU_] |598| 
    1105                      .dwpsn  file "C:/ti/motorware/motorware_1_01_00_17/sw/modules/ctrl/src/32b/ctrl.h",line 1484,column 7
    1106 0000001a 1E94          MOVL      *+XAR4[AR0],ACC       ; [CPU_] |1484| 
    1107                      .dwpsn  file "C:/ti/motorware/motorware_1_01_00_17/sw/modules/ctrl/src/32b/ctrl.h",line 1513,column 7
    1108 0000001b D0CC          MOVB      XAR0,#204             ; [CPU_] |1513| 
    1109                      .dwpsn  file "C:/ti/motorware/motorware_1_01_00_17/sw/solutions/instaspin_foc/src/proj_lab05b.c",line
    1110 0000001c 060A-         MOVL      ACC,@_gMotorVars+74   ; [CPU_] |599| 
    1111                      .dwpsn  file "C:/ti/motorware/motorware_1_01_00_17/sw/modules/ctrl/src/32b/ctrl.h",line 1513,column 7
    1112 0000001d 1E94          MOVL      *+XAR4[AR0],ACC       ; [CPU_] |1513| 
    1113                      .dwpsn  file "C:/ti/motorware/motorware_1_01_00_17/sw/solutions/instaspin_foc/src/proj_lab05b.c",line
    1114 0000001e 060C-         MOVL      ACC,@_gMotorVars+76   ; [CPU_] |600| 
    1115                      .dwpsn  file "C:/ti/motorware/motorware_1_01_00_17/sw/modules/ctrl/src/32b/ctrl.h",line 1488,column 7
    1116 0000001f D0D2          MOVB      XAR0,#210             ; [CPU_] |1488| 
    1117 00000020 1E94          MOVL      *+XAR4[AR0],ACC       ; [CPU_] |1488| 
    1118              $C$L1:    
    1119              $C$DW$154       .dwtag  DW_TAG_TI_branch
    1120                      .dwattr $C$DW$154, DW_AT_low_pc(0x00)
    1121                      .dwattr $C$DW$154, DW_AT_TI_return
    1122              
    1123 00000021 0006          LRETR     ; [CPU_] 
    1124                      ; return occurs ; [] 
    1125                      .dwattr $C$DW$145, DW_AT_TI_end_file("C:/ti/motorware/motorware_1_01_00_17/sw/solutions/instaspin_foc
    1126                      .dwattr $C$DW$145, DW_AT_TI_end_line(0x25c)
    1127                      .dwattr $C$DW$145, DW_AT_TI_end_column(0x01)
    1128                      .dwendentry
    1129                      .dwendtag $C$DW$145
    1130              
    1131 00000022               .sect   ".text"
    1132                      .clink
    1133                      .global _updateGlobalVariables_motor
    1134              
    1135              $C$DW$155       .dwtag  DW_TAG_subprogram
    1136                      .dwattr $C$DW$155, DW_AT_name("updateGlobalVariables_motor")
    1137                      .dwattr $C$DW$155, DW_AT_low_pc(_updateGlobalVariables_motor)
    1138                      .dwattr $C$DW$155, DW_AT_high_pc(0x00)
    1139                      .dwattr $C$DW$155, DW_AT_TI_symbol_name("_updateGlobalVariables_motor")
    1140                      .dwattr $C$DW$155, DW_AT_external
    1141                      .dwattr $C$DW$155, DW_AT_TI_begin_file("C:/ti/motorware/motorware_1_01_00_17/sw/solutions/instaspin_f
    1142                      .dwattr $C$DW$155, DW_AT_TI_begin_line(0x21d)
    1143                      .dwattr $C$DW$155, DW_AT_TI_begin_column(0x06)
TMS320C2000 Assembler PC v15.12.3 Mon Mar 20 21:32:55 2017

Tools Copyright (c) 1996-2015 Texas Instruments Incorporated
C:\Users\Cameron\AppData\Local\Temp\0460811                          PAGE   23

    1144                      .dwattr $C$DW$155, DW_AT_TI_max_frame_size(-8)
    1145                      .dwpsn  file "C:/ti/motorware/motorware_1_01_00_17/sw/solutions/instaspin_foc/src/proj_lab05b.c",line
    1146              
    1147                      .dwfde $C$DW$CIE, _updateGlobalVariables_motor
    1148              $C$DW$156       .dwtag  DW_TAG_formal_parameter
    1149                      .dwattr $C$DW$156, DW_AT_name("handle")
    1150                      .dwattr $C$DW$156, DW_AT_TI_symbol_name("_handle")
    1151                      .dwattr $C$DW$156, DW_AT_type(*$C$DW$T$200)
    1152                      .dwattr $C$DW$156, DW_AT_location[DW_OP_reg12]
    1153              
    1154              
    1155              ;***************************************************************
    1156              ;* FNAME: _updateGlobalVariables_motor  FR SIZE:   6           *
    1157              ;*                                                             *
    1158              ;* FUNCTION ENVIRONMENT                                        *
    1159              ;*                                                             *
    1160              ;* FUNCTION PROPERTIES                                         *
    1161              ;*                            2 Parameter,  0 Auto,  4 SOE     *
    1162              ;***************************************************************
    1163              
    1164              _updateGlobalVariables_motor:
    1165              ;* XT    assigned to $O$R2
    1166              ;* AR2   assigned to _handle
    1167              $C$DW$157       .dwtag  DW_TAG_variable
    1168                      .dwattr $C$DW$157, DW_AT_name("handle")
    1169                      .dwattr $C$DW$157, DW_AT_TI_symbol_name("_handle")
    1170                      .dwattr $C$DW$157, DW_AT_type(*$C$DW$T$234)
    1171                      .dwattr $C$DW$157, DW_AT_location[DW_OP_reg8]
    1172              
    1173                      .dwcfi  cfa_offset, -2
    1174                      .dwcfi  save_reg_to_mem, 26, 0
    1175 00000022 B2BD          MOVL      *SP++,XAR1            ; [CPU_] 
    1176                      .dwcfi  save_reg_to_mem, 7, 2
    1177                      .dwcfi  cfa_offset, -4
    1178 00000023 AABD          MOVL      *SP++,XAR2            ; [CPU_] 
    1179                      .dwcfi  save_reg_to_mem, 9, 4
    1180                      .dwcfi  cfa_offset, -6
    1181 00000024 FE02          ADDB      SP,#2                 ; [CPU_U] 
    1182                      .dwcfi  cfa_offset, -8
    1183 00000025 86A4          MOVL      XAR2,XAR4             ; [CPU_] |542| 
    1184                      .dwpsn  file "C:/ti/motorware/motorware_1_01_00_17/sw/solutions/instaspin_foc/src/proj_lab05b.c",line
    1185 00000026 D018          MOVB      XAR0,#24              ; [CPU_] |546| 
    1186 00000027 8A92          MOVL      XAR4,*+XAR2[AR0]      ; [CPU_] |546| 
    1187              $C$DW$158       .dwtag  DW_TAG_TI_branch
    1188                      .dwattr $C$DW$158, DW_AT_low_pc(0x00)
    1189                      .dwattr $C$DW$158, DW_AT_name("_EST_getSpeed_krpm")
    1190                      .dwattr $C$DW$158, DW_AT_TI_call
    1191              
    1192 00000028 7640!         LCR       #_EST_getSpeed_krpm   ; [CPU_] |546| 
         00000029 0000 
    1193                      ; call occurs [#_EST_getSpeed_krpm] ; [] |546| 
    1194 0000002a 761F-         MOVW      DP,#_gMotorVars+32    ; [CPU_U] 
         0000002b 0002 
    1195                      .dwpsn  file "C:/ti/motorware/motorware_1_01_00_17/sw/modules/traj/src/32b/traj.h",line 96,column 3,i
    1196 0000002c D06C          MOVB      XAR0,#108             ; [CPU_] |96| 
TMS320C2000 Assembler PC v15.12.3 Mon Mar 20 21:32:55 2017

Tools Copyright (c) 1996-2015 Texas Instruments Incorporated
C:\Users\Cameron\AppData\Local\Temp\0460811                          PAGE   24

    1197                      .dwpsn  file "C:/ti/motorware/motorware_1_01_00_17/sw/solutions/instaspin_foc/src/proj_lab05b.c",line
    1198 0000002d 1E20-         MOVL      @_gMotorVars+32,ACC   ; [CPU_] |546| 
    1199                      .dwpsn  file "C:/ti/motorware/motorware_1_01_00_17/sw/modules/traj/src/32b/traj.h",line 96,column 3,i
    1200 0000002e 8A92          MOVL      XAR4,*+XAR2[AR0]      ; [CPU_] |96| 
    1201                      .dwpsn  file "C:/ti/motorware/motorware_1_01_00_17/sw/solutions/instaspin_foc/src/proj_lab05b.c",line
    1202 0000002f D018          MOVB      XAR0,#24              ; [CPU_] |549| 
    1203                      .dwpsn  file "C:/ti/motorware/motorware_1_01_00_17/sw/modules/traj/src/32b/traj.h",line 96,column 3,i
    1204 00000030 8BD4          MOVL      XAR1,*+XAR4[2]        ; [CPU_] |96| 
    1205                      .dwpsn  file "C:/ti/motorware/motorware_1_01_00_17/sw/solutions/instaspin_foc/src/proj_lab05b.c",line
    1206 00000031 8A92          MOVL      XAR4,*+XAR2[AR0]      ; [CPU_] |549| 
    1207              $C$DW$159       .dwtag  DW_TAG_TI_branch
    1208                      .dwattr $C$DW$159, DW_AT_low_pc(0x00)
    1209                      .dwattr $C$DW$159, DW_AT_name("_EST_get_pu_to_krpm_sf")
    1210                      .dwattr $C$DW$159, DW_AT_TI_call
    1211              
    1212 00000032 7640!         LCR       #_EST_get_pu_to_krpm_sf ; [CPU_] |549| 
         00000033 0000 
    1213                      ; call occurs [#_EST_get_pu_to_krpm_sf] ; [] |549| 
    1214 00000034 761F-         MOVW      DP,#_gMotorVars+28    ; [CPU_U] 
         00000035 0002 
    1215 00000036 B2AC          MOVL      XT,XAR1               ; [CPU_] |549| 
    1216                      .dwpsn  file "C:/ti/motorware/motorware_1_01_00_17/sw/solutions/instaspin_foc/src/proj_lab05b.c",line
    1217 00000037 8AA2          MOVL      XAR4,XAR2             ; [CPU_] |552| 
    1218                      .dwpsn  file "C:/ti/motorware/motorware_1_01_00_17/sw/solutions/instaspin_foc/src/proj_lab05b.c",line
    1219 00000038 5605          IMPYL     P,XT,ACC              ; [CPU_] |549| 
         00000039 00A9 
    1220 0000003a 5663          QMPYL     ACC,XT,ACC            ; [CPU_] |549| 
         0000003b 00A9 
    1221 0000003c 56A7          LSL64     ACC:P,#8              ; [CPU_] |549| 
    1222 0000003d 1E1C-         MOVL      @_gMotorVars+28,ACC   ; [CPU_] |549| 
    1223 0000003e 761F-         MOVW      DP,#_gTorque_Ls_Id_Iq_pu_to_Nm_sf ; [CPU_U] 
         0000003f 0000 
    1224                      .dwpsn  file "C:/ti/motorware/motorware_1_01_00_17/sw/solutions/instaspin_foc/src/proj_lab05b.c",line
    1225 00000040 0606-         MOVL      ACC,@_gTorque_Ls_Id_Iq_pu_to_Nm_sf ; [CPU_] |552| 
    1226 00000041 1E42          MOVL      *-SP[2],ACC           ; [CPU_] |552| 
    1227 00000042 0608-         MOVL      ACC,@_gTorque_Flux_Iq_pu_to_Nm_sf ; [CPU_] |552| 
    1228              $C$DW$160       .dwtag  DW_TAG_TI_branch
    1229                      .dwattr $C$DW$160, DW_AT_low_pc(0x00)
    1230                      .dwattr $C$DW$160, DW_AT_name("_USER_computeTorque_Nm")
    1231                      .dwattr $C$DW$160, DW_AT_TI_call
    1232              
    1233 00000043 7640!         LCR       #_USER_computeTorque_Nm ; [CPU_] |552| 
         00000044 0000 
    1234                      ; call occurs [#_USER_computeTorque_Nm] ; [] |552| 
    1235 00000045 761F-         MOVW      DP,#_gMotorVars+42    ; [CPU_U] 
         00000046 0002 
    1236                      .dwpsn  file "C:/ti/motorware/motorware_1_01_00_17/sw/solutions/instaspin_foc/src/proj_lab05b.c",line
    1237 00000047 D018          MOVB      XAR0,#24              ; [CPU_] |555| 
    1238                      .dwpsn  file "C:/ti/motorware/motorware_1_01_00_17/sw/solutions/instaspin_foc/src/proj_lab05b.c",line
    1239 00000048 1E2A-         MOVL      @_gMotorVars+42,ACC   ; [CPU_] |552| 
    1240                      .dwpsn  file "C:/ti/motorware/motorware_1_01_00_17/sw/solutions/instaspin_foc/src/proj_lab05b.c",line
    1241 00000049 8A92          MOVL      XAR4,*+XAR2[AR0]      ; [CPU_] |555| 
    1242              $C$DW$161       .dwtag  DW_TAG_TI_branch
    1243                      .dwattr $C$DW$161, DW_AT_low_pc(0x00)
    1244                      .dwattr $C$DW$161, DW_AT_name("_EST_getIdRated")
TMS320C2000 Assembler PC v15.12.3 Mon Mar 20 21:32:55 2017

Tools Copyright (c) 1996-2015 Texas Instruments Incorporated
C:\Users\Cameron\AppData\Local\Temp\0460811                          PAGE   25

    1245                      .dwattr $C$DW$161, DW_AT_TI_call
    1246              
    1247 0000004a 7640!         LCR       #_EST_getIdRated      ; [CPU_] |555| 
         0000004b 0000 
    1248                      ; call occurs [#_EST_getIdRated] ; [] |555| 
    1249 0000004c 761F-         MOVW      DP,#_gMotorVars+44    ; [CPU_U] 
         0000004d 0002 
    1250                      .dwpsn  file "C:/ti/motorware/motorware_1_01_00_17/sw/solutions/instaspin_foc/src/proj_lab05b.c",line
    1251 0000004e D018          MOVB      XAR0,#24              ; [CPU_] |558| 
    1252                      .dwpsn  file "C:/ti/motorware/motorware_1_01_00_17/sw/solutions/instaspin_foc/src/proj_lab05b.c",line
    1253 0000004f 1E2C-         MOVL      @_gMotorVars+44,ACC   ; [CPU_] |555| 
    1254                      .dwpsn  file "C:/ti/motorware/motorware_1_01_00_17/sw/solutions/instaspin_foc/src/proj_lab05b.c",line
    1255 00000050 8A92          MOVL      XAR4,*+XAR2[AR0]      ; [CPU_] |558| 
    1256              $C$DW$162       .dwtag  DW_TAG_TI_branch
    1257                      .dwattr $C$DW$162, DW_AT_low_pc(0x00)
    1258                      .dwattr $C$DW$162, DW_AT_name("_EST_getRr_Ohm")
    1259                      .dwattr $C$DW$162, DW_AT_TI_call
    1260              
    1261 00000051 7640!         LCR       #_EST_getRr_Ohm       ; [CPU_] |558| 
         00000052 0000 
    1262                      ; call occurs [#_EST_getRr_Ohm] ; [] |558| 
    1263 00000053 761F-         MOVW      DP,#_gMotorVars+46    ; [CPU_U] 
         00000054 0002 
    1264                      .dwpsn  file "C:/ti/motorware/motorware_1_01_00_17/sw/solutions/instaspin_foc/src/proj_lab05b.c",line
    1265 00000055 D018          MOVB      XAR0,#24              ; [CPU_] |561| 
    1266                      .dwpsn  file "C:/ti/motorware/motorware_1_01_00_17/sw/solutions/instaspin_foc/src/proj_lab05b.c",line
    1267 00000056 1E2E-         MOVL      @_gMotorVars+46,ACC   ; [CPU_] |558| 
    1268                      .dwpsn  file "C:/ti/motorware/motorware_1_01_00_17/sw/solutions/instaspin_foc/src/proj_lab05b.c",line
    1269 00000057 8A92          MOVL      XAR4,*+XAR2[AR0]      ; [CPU_] |561| 
    1270              $C$DW$163       .dwtag  DW_TAG_TI_branch
    1271                      .dwattr $C$DW$163, DW_AT_low_pc(0x00)
    1272                      .dwattr $C$DW$163, DW_AT_name("_EST_getRs_Ohm")
    1273                      .dwattr $C$DW$163, DW_AT_TI_call
    1274              
    1275 00000058 7640!         LCR       #_EST_getRs_Ohm       ; [CPU_] |561| 
         00000059 0000 
    1276                      ; call occurs [#_EST_getRs_Ohm] ; [] |561| 
    1277 0000005a 761F-         MOVW      DP,#_gMotorVars+48    ; [CPU_U] 
         0000005b 0002 
    1278                      .dwpsn  file "C:/ti/motorware/motorware_1_01_00_17/sw/solutions/instaspin_foc/src/proj_lab05b.c",line
    1279 0000005c D018          MOVB      XAR0,#24              ; [CPU_] |564| 
    1280                      .dwpsn  file "C:/ti/motorware/motorware_1_01_00_17/sw/solutions/instaspin_foc/src/proj_lab05b.c",line
    1281 0000005d 1E30-         MOVL      @_gMotorVars+48,ACC   ; [CPU_] |561| 
    1282                      .dwpsn  file "C:/ti/motorware/motorware_1_01_00_17/sw/solutions/instaspin_foc/src/proj_lab05b.c",line
    1283 0000005e 8A92          MOVL      XAR4,*+XAR2[AR0]      ; [CPU_] |564| 
    1284              $C$DW$164       .dwtag  DW_TAG_TI_branch
    1285                      .dwattr $C$DW$164, DW_AT_low_pc(0x00)
    1286                      .dwattr $C$DW$164, DW_AT_name("_EST_getLs_d_H")
    1287                      .dwattr $C$DW$164, DW_AT_TI_call
    1288              
    1289 0000005f 7640!         LCR       #_EST_getLs_d_H       ; [CPU_] |564| 
         00000060 0000 
    1290                      ; call occurs [#_EST_getLs_d_H] ; [] |564| 
    1291 00000061 761F-         MOVW      DP,#_gMotorVars+52    ; [CPU_U] 
         00000062 0002 
TMS320C2000 Assembler PC v15.12.3 Mon Mar 20 21:32:55 2017

Tools Copyright (c) 1996-2015 Texas Instruments Incorporated
C:\Users\Cameron\AppData\Local\Temp\0460811                          PAGE   26

    1292                      .dwpsn  file "C:/ti/motorware/motorware_1_01_00_17/sw/solutions/instaspin_foc/src/proj_lab05b.c",line
    1293 00000063 D018          MOVB      XAR0,#24              ; [CPU_] |567| 
    1294                      .dwpsn  file "C:/ti/motorware/motorware_1_01_00_17/sw/solutions/instaspin_foc/src/proj_lab05b.c",line
    1295 00000064 1E34-         MOVL      @_gMotorVars+52,ACC   ; [CPU_] |564| 
    1296                      .dwpsn  file "C:/ti/motorware/motorware_1_01_00_17/sw/solutions/instaspin_foc/src/proj_lab05b.c",line
    1297 00000065 8A92          MOVL      XAR4,*+XAR2[AR0]      ; [CPU_] |567| 
    1298              $C$DW$165       .dwtag  DW_TAG_TI_branch
    1299                      .dwattr $C$DW$165, DW_AT_low_pc(0x00)
    1300                      .dwattr $C$DW$165, DW_AT_name("_EST_getLs_q_H")
    1301                      .dwattr $C$DW$165, DW_AT_TI_call
    1302              
    1303 00000066 7640!         LCR       #_EST_getLs_q_H       ; [CPU_] |567| 
         00000067 0000 
    1304                      ; call occurs [#_EST_getLs_q_H] ; [] |567| 
    1305 00000068 761F-         MOVW      DP,#_gMotorVars+54    ; [CPU_U] 
         00000069 0002 
    1306                      .dwpsn  file "C:/ti/motorware/motorware_1_01_00_17/sw/solutions/instaspin_foc/src/proj_lab05b.c",line
    1307 0000006a D018          MOVB      XAR0,#24              ; [CPU_] |570| 
    1308                      .dwpsn  file "C:/ti/motorware/motorware_1_01_00_17/sw/solutions/instaspin_foc/src/proj_lab05b.c",line
    1309 0000006b 1E36-         MOVL      @_gMotorVars+54,ACC   ; [CPU_] |567| 
    1310                      .dwpsn  file "C:/ti/motorware/motorware_1_01_00_17/sw/solutions/instaspin_foc/src/proj_lab05b.c",line
    1311 0000006c 8A92          MOVL      XAR4,*+XAR2[AR0]      ; [CPU_] |570| 
    1312              $C$DW$166       .dwtag  DW_TAG_TI_branch
    1313                      .dwattr $C$DW$166, DW_AT_low_pc(0x00)
    1314                      .dwattr $C$DW$166, DW_AT_name("_EST_getFlux_VpHz")
    1315                      .dwattr $C$DW$166, DW_AT_TI_call
    1316              
    1317 0000006d 7640!         LCR       #_EST_getFlux_VpHz    ; [CPU_] |570| 
         0000006e 0000 
    1318                      ; call occurs [#_EST_getFlux_VpHz] ; [] |570| 
    1319 0000006f 761F-         MOVW      DP,#_gMotorVars+56    ; [CPU_U] 
         00000070 0002 
    1320                      .dwpsn  file "C:/ti/motorware/motorware_1_01_00_17/sw/solutions/instaspin_foc/src/proj_lab05b.c",line
    1321 00000071 8AA2          MOVL      XAR4,XAR2             ; [CPU_] |573| 
    1322                      .dwpsn  file "C:/ti/motorware/motorware_1_01_00_17/sw/solutions/instaspin_foc/src/proj_lab05b.c",line
    1323 00000072 1E38-         MOVL      @_gMotorVars+56,ACC   ; [CPU_] |570| 
    1324 00000073 761F-         MOVW      DP,#_gFlux_pu_to_Wb_sf ; [CPU_U] 
         00000074 0000 
    1325                      .dwpsn  file "C:/ti/motorware/motorware_1_01_00_17/sw/solutions/instaspin_foc/src/proj_lab05b.c",line
    1326 00000075 0610-         MOVL      ACC,@_gFlux_pu_to_Wb_sf ; [CPU_] |573| 
    1327              $C$DW$167       .dwtag  DW_TAG_TI_branch
    1328                      .dwattr $C$DW$167, DW_AT_low_pc(0x00)
    1329                      .dwattr $C$DW$167, DW_AT_name("_USER_computeFlux")
    1330                      .dwattr $C$DW$167, DW_AT_TI_call
    1331              
    1332 00000076 7640!         LCR       #_USER_computeFlux    ; [CPU_] |573| 
         00000077 0000 
    1333                      ; call occurs [#_USER_computeFlux] ; [] |573| 
    1334 00000078 761F-         MOVW      DP,#_gMotorVars+40    ; [CPU_U] 
         00000079 0002 
    1335                      .dwpsn  file "C:/ti/motorware/motorware_1_01_00_17/sw/solutions/instaspin_foc/src/proj_lab05b.c",line
    1336 0000007a D018          MOVB      XAR0,#24              ; [CPU_] |579| 
    1337                      .dwpsn  file "C:/ti/motorware/motorware_1_01_00_17/sw/solutions/instaspin_foc/src/proj_lab05b.c",line
    1338 0000007b 1E28-         MOVL      @_gMotorVars+40,ACC   ; [CPU_] |573| 
    1339                      .dwpsn  file "C:/ti/motorware/motorware_1_01_00_17/sw/solutions/instaspin_foc/src/proj_lab05b.c",line
TMS320C2000 Assembler PC v15.12.3 Mon Mar 20 21:32:55 2017

Tools Copyright (c) 1996-2015 Texas Instruments Incorporated
C:\Users\Cameron\AppData\Local\Temp\0460811                          PAGE   27

    1340 0000007c 92E2          MOV       AL,*+XAR2[4]          ; [CPU_] |576| 
    1341 0000007d 960D-         MOV       @_gMotorVars+13,AL    ; [CPU_] |576| 
    1342                      .dwpsn  file "C:/ti/motorware/motorware_1_01_00_17/sw/solutions/instaspin_foc/src/proj_lab05b.c",line
    1343 0000007e 8A92          MOVL      XAR4,*+XAR2[AR0]      ; [CPU_] |579| 
    1344              $C$DW$168       .dwtag  DW_TAG_TI_branch
    1345                      .dwattr $C$DW$168, DW_AT_low_pc(0x00)
    1346                      .dwattr $C$DW$168, DW_AT_name("_EST_getState")
    1347                      .dwattr $C$DW$168, DW_AT_TI_call
    1348              
    1349 0000007f 7640!         LCR       #_EST_getState        ; [CPU_] |579| 
         00000080 0000 
    1350                      ; call occurs [#_EST_getState] ; [] |579| 
    1351 00000081 761F-         MOVW      DP,#_gMotorVars+14    ; [CPU_U] 
         00000082 0002 
    1352                      .dwpsn  file "C:/ti/motorware/motorware_1_01_00_17/sw/solutions/instaspin_foc/src/proj_lab05b.c",line
    1353 00000083 8F08          MOVL      XAR4,#570425          ; [CPU_U] |582| 
         00000084 B439 
    1354                      .dwpsn  file "C:/ti/motorware/motorware_1_01_00_17/sw/solutions/instaspin_foc/src/proj_lab05b.c",line
    1355 00000085 960E-         MOV       @_gMotorVars+14,AL    ; [CPU_] |579| 
    1356 00000086 761F-         MOVW      DP,#_gAdcData+12      ; [CPU_U] 
         00000087 0000 
    1357                      .dwpsn  file "C:/ti/motorware/motorware_1_01_00_17/sw/solutions/instaspin_foc/src/proj_lab05b.c",line
    1358 00000088 8728-         MOVL      XT,@_gAdcData+12      ; [CPU_] |582| 
    1359 00000089 5663          QMPYL     ACC,XT,XAR4           ; [CPU_] |582| 
         0000008a 00A4 
    1360 0000008b 5605          IMPYL     P,XT,XAR4             ; [CPU_] |582| 
         0000008c 00A4 
    1361 0000008d FE82          SUBB      SP,#2                 ; [CPU_U] 
    1362                      .dwcfi  cfa_offset, -6
    1363 0000008e 56A7          LSL64     ACC:P,#8              ; [CPU_] |582| 
    1364 0000008f 86BE          MOVL      XAR2,*--SP            ; [CPU_] 
    1365                      .dwcfi  cfa_offset, -4
    1366                      .dwcfi  restore_reg, 9
    1367 00000090 8BBE          MOVL      XAR1,*--SP            ; [CPU_] 
    1368                      .dwcfi  cfa_offset, -2
    1369                      .dwcfi  restore_reg, 7
    1370 00000091 761F-         MOVW      DP,#_gMotorVars+86    ; [CPU_U] 
         00000092 0003 
    1371 00000093 1E16-         MOVL      @_gMotorVars+86,ACC   ; [CPU_] |582| 
    1372              $C$DW$169       .dwtag  DW_TAG_TI_branch
    1373                      .dwattr $C$DW$169, DW_AT_low_pc(0x00)
    1374                      .dwattr $C$DW$169, DW_AT_TI_return
    1375              
    1376 00000094 0006          LRETR     ; [CPU_] 
    1377                      ; return occurs ; [] 
    1378                      .dwattr $C$DW$155, DW_AT_TI_end_file("C:/ti/motorware/motorware_1_01_00_17/sw/solutions/instaspin_foc
    1379                      .dwattr $C$DW$155, DW_AT_TI_end_line(0x249)
    1380                      .dwattr $C$DW$155, DW_AT_TI_end_column(0x01)
    1381                      .dwendentry
    1382                      .dwendtag $C$DW$155
    1383              
    1384 00000000               .sect   "ramfuncs:retain"
    1385                      .retain
    1386                      .retainrefs
    1387                      .global _mainISR
TMS320C2000 Assembler PC v15.12.3 Mon Mar 20 21:32:55 2017

Tools Copyright (c) 1996-2015 Texas Instruments Incorporated
C:\Users\Cameron\AppData\Local\Temp\0460811                          PAGE   28

    1388              
    1389              $C$DW$170       .dwtag  DW_TAG_subprogram
    1390                      .dwattr $C$DW$170, DW_AT_name("mainISR")
    1391                      .dwattr $C$DW$170, DW_AT_low_pc(_mainISR)
    1392                      .dwattr $C$DW$170, DW_AT_high_pc(0x00)
    1393                      .dwattr $C$DW$170, DW_AT_TI_symbol_name("_mainISR")
    1394                      .dwattr $C$DW$170, DW_AT_external
    1395                      .dwattr $C$DW$170, DW_AT_TI_begin_file("C:/ti/motorware/motorware_1_01_00_17/sw/solutions/instaspin_f
    1396                      .dwattr $C$DW$170, DW_AT_TI_begin_line(0x1e4)
    1397                      .dwattr $C$DW$170, DW_AT_TI_begin_column(0x10)
    1398                      .dwattr $C$DW$170, DW_AT_TI_interrupt
    1399                      .dwattr $C$DW$170, DW_AT_TI_max_frame_size(-18)
    1400                      .dwpsn  file "C:/ti/motorware/motorware_1_01_00_17/sw/solutions/instaspin_foc/src/proj_lab05b.c",line
    1401              
    1402                      .dwfde $C$DW$CIE, _mainISR
    1403              
    1404              ;***************************************************************
    1405              ;* FNAME: _mainISR                      FR SIZE:  16           *
    1406              ;*                                                             *
    1407              ;* FUNCTION ENVIRONMENT                                        *
    1408              ;*                                                             *
    1409              ;* FUNCTION PROPERTIES                                         *
    1410              ;*                            4 Parameter,  0 Auto, 12 SOE     *
    1411              ;***************************************************************
    1412              
    1413              _mainISR:
    1414              ;* AR5   assigned to $O$C1
    1415              ;* AR1   assigned to $O$C2
    1416              ;* AR4   assigned to $O$C3
    1417              ;* AR7   assigned to $O$C4
    1418              ;* AR6   assigned to $O$C5
    1419              ;* AR7   assigned to $O$C6
    1420              ;* AR5   assigned to $O$v1
    1421              ;* XT    assigned to _value
    1422              $C$DW$171       .dwtag  DW_TAG_variable
    1423                      .dwattr $C$DW$171, DW_AT_name("value")
    1424                      .dwattr $C$DW$171, DW_AT_TI_symbol_name("_value")
    1425                      .dwattr $C$DW$171, DW_AT_type(*$C$DW$T$31)
    1426                      .dwattr $C$DW$171, DW_AT_location[DW_OP_reg21]
    1427              
    1428              ;* XT    assigned to _value
    1429              $C$DW$172       .dwtag  DW_TAG_variable
    1430                      .dwattr $C$DW$172, DW_AT_name("value")
    1431                      .dwattr $C$DW$172, DW_AT_TI_symbol_name("_value")
    1432                      .dwattr $C$DW$172, DW_AT_type(*$C$DW$T$31)
    1433                      .dwattr $C$DW$172, DW_AT_location[DW_OP_reg21]
    1434              
    1435              ;* XT    assigned to _value
    1436              $C$DW$173       .dwtag  DW_TAG_variable
    1437                      .dwattr $C$DW$173, DW_AT_name("value")
    1438                      .dwattr $C$DW$173, DW_AT_TI_symbol_name("_value")
    1439                      .dwattr $C$DW$173, DW_AT_type(*$C$DW$T$31)
    1440                      .dwattr $C$DW$173, DW_AT_location[DW_OP_reg21]
    1441              
    1442              ;* XT    assigned to _value
TMS320C2000 Assembler PC v15.12.3 Mon Mar 20 21:32:55 2017

Tools Copyright (c) 1996-2015 Texas Instruments Incorporated
C:\Users\Cameron\AppData\Local\Temp\0460811                          PAGE   29

    1443              $C$DW$174       .dwtag  DW_TAG_variable
    1444                      .dwattr $C$DW$174, DW_AT_name("value")
    1445                      .dwattr $C$DW$174, DW_AT_TI_symbol_name("_value")
    1446                      .dwattr $C$DW$174, DW_AT_type(*$C$DW$T$31)
    1447                      .dwattr $C$DW$174, DW_AT_location[DW_OP_reg21]
    1448              
    1449              ;* XT    assigned to _value
    1450              $C$DW$175       .dwtag  DW_TAG_variable
    1451                      .dwattr $C$DW$175, DW_AT_name("value")
    1452                      .dwattr $C$DW$175, DW_AT_TI_symbol_name("_value")
    1453                      .dwattr $C$DW$175, DW_AT_type(*$C$DW$T$31)
    1454                      .dwattr $C$DW$175, DW_AT_location[DW_OP_reg21]
    1455              
    1456              ;* XT    assigned to _value
    1457              $C$DW$176       .dwtag  DW_TAG_variable
    1458                      .dwattr $C$DW$176, DW_AT_name("value")
    1459                      .dwattr $C$DW$176, DW_AT_TI_symbol_name("_value")
    1460                      .dwattr $C$DW$176, DW_AT_type(*$C$DW$T$31)
    1461                      .dwattr $C$DW$176, DW_AT_location[DW_OP_reg21]
    1462              
    1463              ;* XT    assigned to _value
    1464              $C$DW$177       .dwtag  DW_TAG_variable
    1465                      .dwattr $C$DW$177, DW_AT_name("value")
    1466                      .dwattr $C$DW$177, DW_AT_TI_symbol_name("_value")
    1467                      .dwattr $C$DW$177, DW_AT_type(*$C$DW$T$31)
    1468                      .dwattr $C$DW$177, DW_AT_location[DW_OP_reg21]
    1469              
    1470              ;* AR7   assigned to _period
    1471              $C$DW$178       .dwtag  DW_TAG_variable
    1472                      .dwattr $C$DW$178, DW_AT_name("period")
    1473                      .dwattr $C$DW$178, DW_AT_TI_symbol_name("_period")
    1474                      .dwattr $C$DW$178, DW_AT_type(*$C$DW$T$31)
    1475                      .dwattr $C$DW$178, DW_AT_location[DW_OP_reg18]
    1476              
    1477              ;* AR5   assigned to _obj
    1478              $C$DW$179       .dwtag  DW_TAG_variable
    1479                      .dwattr $C$DW$179, DW_AT_name("obj")
    1480                      .dwattr $C$DW$179, DW_AT_TI_symbol_name("_obj")
    1481                      .dwattr $C$DW$179, DW_AT_type(*$C$DW$T$253)
    1482                      .dwattr $C$DW$179, DW_AT_location[DW_OP_reg14]
    1483              
    1484              ;* AR1   assigned to $O$U109
    1485              ;* AR4   assigned to $O$U101
    1486                      .dwcfi  cfa_offset, -2
    1487                      .dwcfi  save_reg_to_mem, 26, 0
    1488 00000000 761B          ASP       ; [CPU_] 
    1489 00000001 0005          PUSH      AR1H:AR0H             ; [CPU_] 
    1490                      .dwcfi  save_reg_to_mem, 5, 2
    1491                      .dwcfi  save_reg_to_mem, 7, 3
    1492                      .dwcfi  cfa_offset, -4
    1493 00000002 ABBD          MOVL      *SP++,XT              ; [CPU_] 
    1494                      .dwcfi  save_reg_to_mem, 21, 4
    1495                      .dwcfi  save_reg_to_mem, 22, 5
    1496                      .dwcfi  cfa_offset, -6
    1497 00000003 A8BD          MOVL      *SP++,XAR4            ; [CPU_] 
TMS320C2000 Assembler PC v15.12.3 Mon Mar 20 21:32:55 2017

Tools Copyright (c) 1996-2015 Texas Instruments Incorporated
C:\Users\Cameron\AppData\Local\Temp\0460811                          PAGE   30

    1498                      .dwcfi  save_reg_to_mem, 12, 6
    1499                      .dwcfi  save_reg_to_mem, 13, 7
    1500                      .dwcfi  cfa_offset, -8
    1501 00000004 A0BD          MOVL      *SP++,XAR5            ; [CPU_] 
    1502                      .dwcfi  save_reg_to_mem, 14, 8
    1503                      .dwcfi  save_reg_to_mem, 15, 9
    1504                      .dwcfi  cfa_offset, -10
    1505 00000005 C2BD          MOVL      *SP++,XAR6            ; [CPU_] 
    1506                      .dwcfi  save_reg_to_mem, 16, 10
    1507                      .dwcfi  save_reg_to_mem, 17, 11
    1508                      .dwcfi  cfa_offset, -12
    1509 00000006 C3BD          MOVL      *SP++,XAR7            ; [CPU_] 
    1510                      .dwcfi  save_reg_to_mem, 18, 12
    1511                      .dwcfi  save_reg_to_mem, 19, 13
    1512                      .dwcfi  cfa_offset, -14
    1513 00000007 FE04          ADDB      SP,#4                 ; [CPU_U] 
    1514                      .dwcfi  cfa_offset, -18
    1515 00000008 FF69          SPM       0                     ; [CPU_] 
    1516 00000009 2942          CLRC      PAGE0,OVM             ; [CPU_] 
    1517 0000000a 5616          CLRC      AMODE                 ; [CPU_] 
    1518 0000000b 761F-         MOVW      DP,#_gLEDcnt          ; [CPU_U] 
         0000000c 0000 
    1519                      .dwpsn  file "C:/ti/motorware/motorware_1_01_00_17/sw/solutions/instaspin_foc/src/proj_lab05b.c",line
    1520 0000000d 0A05-         INC       @_gLEDcnt             ; [CPU_] |487| 
    1521 0000000e 9205-         MOV       AL,@_gLEDcnt          ; [CPU_] |487| 
    1522 0000000f 9CFF          ADDB      AL,#-1                ; [CPU_] |487| 
    1523 00000010 1BA9          CMP       AL,#2000              ; [CPU_] |487| 
         00000011 07D0 
    1524 00000012 690B          B         $C$L2,LOS             ; [CPU_] |487| 
    1525                      ; branchcc occurs ; [] |487| 
    1526                      .dwpsn  file "C:/ti/motorware/motorware_1_01_00_17/sw/modules/hal/boards/boostxldrv8301_revB/f28x/f28
    1527 00000013 0208          MOVB      ACC,#8                ; [CPU_] |769| 
    1528 00000014 070C-         ADDL      ACC,@_halHandle       ; [CPU_] |769| 
    1529 00000015 8AA9          MOVL      XAR4,ACC              ; [CPU_] |769| 
    1530 00000016 9A00          MOVB      AL,#0                 ; [CPU_] |769| 
    1531 00000017 8AC4          MOVL      XAR4,*+XAR4[0]        ; [CPU_] |769| 
    1532              $C$DW$180       .dwtag  DW_TAG_TI_branch
    1533                      .dwattr $C$DW$180, DW_AT_low_pc(0x00)
    1534                      .dwattr $C$DW$180, DW_AT_name("_GPIO_toggle")
    1535                      .dwattr $C$DW$180, DW_AT_TI_call
    1536              
    1537 00000018 7640!         LCR       #_GPIO_toggle         ; [CPU_] |769| 
         00000019 0000 
    1538                      ; call occurs [#_GPIO_toggle] ; [] |769| 
    1539 0000001a 761F-         MOVW      DP,#_gLEDcnt          ; [CPU_U] 
         0000001b 0000 
    1540                      .dwpsn  file "C:/ti/motorware/motorware_1_01_00_17/sw/solutions/instaspin_foc/src/proj_lab05b.c",line
    1541 0000001c 2B05-         MOV       @_gLEDcnt,#0          ; [CPU_] |490| 
    1542 0000001d       $C$L2:    
    1543                      .dwpsn  file "C:/ti/motorware/motorware_1_01_00_17/sw/solutions/instaspin_foc/src/proj_lab05b.c",line
    1544 0000001d 830C-         MOVL      XAR5,@_halHandle      ; [CPU_] |495| 
    1545                      .dwpsn  file "C:/ti/motorware/motorware_1_01_00_17/sw/drivers/adc/src/32b/f28x/f2802x/adc.h",line 571
    1546 0000001e 8F00          MOVL      XAR4,#26117           ; [CPU_U] |571| 
         0000001f 6605 
    1547 00000020 A8A9          MOVL      ACC,XAR4              ; [CPU_] |571| 
TMS320C2000 Assembler PC v15.12.3 Mon Mar 20 21:32:55 2017

Tools Copyright (c) 1996-2015 Texas Instruments Incorporated
C:\Users\Cameron\AppData\Local\Temp\0460811                          PAGE   31

    1548 00000021 07C5          ADDL      ACC,*+XAR5[0]         ; [CPU_] |571| 
    1549 00000022 8AA9          MOVL      XAR4,ACC              ; [CPU_] |571| 
    1550                      .dwpsn  file "C:/ti/motorware/motorware_1_01_00_17/sw/drivers/pie/src/32b/f28x/f2802x/pie.h",line 756
    1551 00000023 D078          MOVB      XAR0,#120             ; [CPU_] |756| 
    1552                      .dwpsn  file "C:/ti/motorware/motorware_1_01_00_17/sw/drivers/adc/src/32b/f28x/f2802x/adc.h",line 571
    1553 00000024 56BF          MOVB      *+XAR4[0],#1,UNC      ; [CPU_] |571| 
         00000025 01C4 
    1554                      .dwpsn  file "C:/ti/motorware/motorware_1_01_00_17/sw/drivers/pie/src/32b/f28x/f2802x/pie.h",line 756
    1555 00000026 8A95          MOVL      XAR4,*+XAR5[AR0]      ; [CPU_] |756| 
    1556                      .dwpsn  file "C:/ti/motorware/motorware_1_01_00_17/sw/modules/hal/boards/boostxldrv8301_revB/f28x/f28
    1557 00000027 D0A0          MOVB      XAR0,#160             ; [CPU_] |517| 
    1558                      .dwpsn  file "C:/ti/motorware/motorware_1_01_00_17/sw/drivers/pie/src/32b/f28x/f2802x/pie.h",line 756
    1559 00000028 28CC          MOV       *+XAR4[1],#512        ; [CPU_] |756| 
         00000029 0200 
    1560                      .dwpsn  file "C:/ti/motorware/motorware_1_01_00_17/sw/drivers/adc/src/32b/f28x/f2802x/adc.h",line 684
    1561 0000002a C4C5          MOVL      XAR6,*+XAR5[0]        ; [CPU_] |684| 
    1562                      .dwpsn  file "C:/ti/motorware/motorware_1_01_00_17/sw/modules/hal/boards/boostxldrv8301_revB/f28x/f28
    1563 0000002b C595          MOVL      XAR7,*+XAR5[AR0]      ; [CPU_] |517| 
    1564                      .dwpsn  file "C:/ti/motorware/motorware_1_01_00_17/sw/modules/hal/boards/boostxldrv8301_revB/f28x/f28
    1565 0000002c 8F00-         MOVL      XAR4,#_gAdcData       ; [CPU_U] |518| 
         0000002d 001C 
    1566                      .dwpsn  file "C:/ti/motorware/motorware_1_01_00_17/sw/modules/hal/boards/boostxldrv8301_revB/f28x/f28
    1567 0000002e D092          MOVB      XAR0,#146             ; [CPU_] |517| 
    1568                      .dwpsn  file "C:/ti/motorware/motorware_1_01_00_17/sw/drivers/adc/src/32b/f28x/f2802x/adc.h",line 684
    1569 0000002f 0ECE          MOVU      ACC,*+XAR6[1]         ; [CPU_] |684| 
    1570 00000030 1EAC          MOVL      XT,ACC                ; [CPU_] |684| 
    1571                      .dwpsn  file "C:/ti/motorware/motorware_1_01_00_17/sw/modules/hal/boards/boostxldrv8301_revB/f28x/f28
    1572 00000031 5605          IMPYL     P,XT,XAR7             ; [CPU_] |517| 
         00000032 00A7 
    1573 00000033 5663          QMPYL     ACC,XT,XAR7           ; [CPU_] |517| 
         00000034 00A7 
    1574 00000035 568B          ASR64     ACC:P,#12             ; [CPU_] |517| 
    1575 00000036 A9A9          MOVL      ACC,P                 ; [CPU_] |517| 
    1576 00000037 0395          SUBL      ACC,*+XAR5[AR0]       ; [CPU_] |517| 
    1577                      .dwpsn  file "C:/ti/motorware/motorware_1_01_00_17/sw/modules/hal/boards/boostxldrv8301_revB/f28x/f28
    1578 00000038 D094          MOVB      XAR0,#148             ; [CPU_] |522| 
    1579                      .dwpsn  file "C:/ti/motorware/motorware_1_01_00_17/sw/modules/hal/boards/boostxldrv8301_revB/f28x/f28
    1580 00000039 1EC4          MOVL      *+XAR4[0],ACC         ; [CPU_] |518| 
    1581                      .dwpsn  file "C:/ti/motorware/motorware_1_01_00_17/sw/drivers/adc/src/32b/f28x/f2802x/adc.h",line 684
    1582 0000003a 0ED6          MOVU      ACC,*+XAR6[2]         ; [CPU_] |684| 
    1583 0000003b 1EAC          MOVL      XT,ACC                ; [CPU_] |684| 
    1584                      .dwpsn  file "C:/ti/motorware/motorware_1_01_00_17/sw/modules/hal/boards/boostxldrv8301_revB/f28x/f28
    1585 0000003c 5605          IMPYL     P,XT,XAR7             ; [CPU_] |522| 
         0000003d 00A7 
    1586 0000003e 5663          QMPYL     ACC,XT,XAR7           ; [CPU_] |522| 
         0000003f 00A7 
    1587 00000040 568B          ASR64     ACC:P,#12             ; [CPU_] |522| 
    1588 00000041 A9A9          MOVL      ACC,P                 ; [CPU_] |522| 
    1589 00000042 0395          SUBL      ACC,*+XAR5[AR0]       ; [CPU_] |522| 
    1590                      .dwpsn  file "C:/ti/motorware/motorware_1_01_00_17/sw/modules/hal/boards/boostxldrv8301_revB/f28x/f28
    1591 00000043 D096          MOVB      XAR0,#150             ; [CPU_] |527| 
    1592                      .dwpsn  file "C:/ti/motorware/motorware_1_01_00_17/sw/modules/hal/boards/boostxldrv8301_revB/f28x/f28
    1593 00000044 1ED4          MOVL      *+XAR4[2],ACC         ; [CPU_] |523| 
    1594                      .dwpsn  file "C:/ti/motorware/motorware_1_01_00_17/sw/drivers/adc/src/32b/f28x/f2802x/adc.h",line 684
    1595 00000045 0EDE          MOVU      ACC,*+XAR6[3]         ; [CPU_] |684| 
TMS320C2000 Assembler PC v15.12.3 Mon Mar 20 21:32:55 2017

Tools Copyright (c) 1996-2015 Texas Instruments Incorporated
C:\Users\Cameron\AppData\Local\Temp\0460811                          PAGE   32

    1596 00000046 1EAC          MOVL      XT,ACC                ; [CPU_] |684| 
    1597                      .dwpsn  file "C:/ti/motorware/motorware_1_01_00_17/sw/modules/hal/boards/boostxldrv8301_revB/f28x/f28
    1598 00000047 5605          IMPYL     P,XT,XAR7             ; [CPU_] |527| 
         00000048 00A7 
    1599 00000049 5663          QMPYL     ACC,XT,XAR7           ; [CPU_] |527| 
         0000004a 00A7 
    1600 0000004b 568B          ASR64     ACC:P,#12             ; [CPU_] |527| 
    1601 0000004c A9A9          MOVL      ACC,P                 ; [CPU_] |527| 
    1602 0000004d 0395          SUBL      ACC,*+XAR5[AR0]       ; [CPU_] |527| 
    1603                      .dwpsn  file "C:/ti/motorware/motorware_1_01_00_17/sw/modules/hal/boards/boostxldrv8301_revB/f28x/f28
    1604 0000004e D0A2          MOVB      XAR0,#162             ; [CPU_] |532| 
    1605                      .dwpsn  file "C:/ti/motorware/motorware_1_01_00_17/sw/modules/hal/boards/boostxldrv8301_revB/f28x/f28
    1606 0000004f 1EE4          MOVL      *+XAR4[4],ACC         ; [CPU_] |528| 
    1607                      .dwpsn  file "C:/ti/motorware/motorware_1_01_00_17/sw/drivers/adc/src/32b/f28x/f2802x/adc.h",line 684
    1608 00000050 0EE6          MOVU      ACC,*+XAR6[4]         ; [CPU_] |684| 
    1609                      .dwpsn  file "C:/ti/motorware/motorware_1_01_00_17/sw/modules/hal/boards/boostxldrv8301_revB/f28x/f28
    1610 00000051 C595          MOVL      XAR7,*+XAR5[AR0]      ; [CPU_] |532| 
    1611                      .dwpsn  file "C:/ti/motorware/motorware_1_01_00_17/sw/solutions/instaspin_foc/src/proj_lab05b.c",line
    1612 00000052 8D40-         MOVL      XAR1,#_gPwmData       ; [CPU_U] |503| 
         00000053 0016 
    1613                      .dwpsn  file "C:/ti/motorware/motorware_1_01_00_17/sw/drivers/adc/src/32b/f28x/f2802x/adc.h",line 684
    1614 00000054 1EAC          MOVL      XT,ACC                ; [CPU_] |684| 
    1615                      .dwpsn  file "C:/ti/motorware/motorware_1_01_00_17/sw/modules/hal/boards/boostxldrv8301_revB/f28x/f28
    1616 00000055 D098          MOVB      XAR0,#152             ; [CPU_] |532| 
    1617 00000056 5605          IMPYL     P,XT,XAR7             ; [CPU_] |532| 
         00000057 00A7 
    1618 00000058 5663          QMPYL     ACC,XT,XAR7           ; [CPU_] |532| 
         00000059 00A7 
    1619 0000005a 568B          ASR64     ACC:P,#12             ; [CPU_] |532| 
    1620 0000005b A9A9          MOVL      ACC,P                 ; [CPU_] |532| 
    1621 0000005c 0395          SUBL      ACC,*+XAR5[AR0]       ; [CPU_] |532| 
    1622                      .dwpsn  file "C:/ti/motorware/motorware_1_01_00_17/sw/modules/hal/boards/boostxldrv8301_revB/f28x/f28
    1623 0000005d D09A          MOVB      XAR0,#154             ; [CPU_] |537| 
    1624                      .dwpsn  file "C:/ti/motorware/motorware_1_01_00_17/sw/modules/hal/boards/boostxldrv8301_revB/f28x/f28
    1625 0000005e 1EF4          MOVL      *+XAR4[6],ACC         ; [CPU_] |533| 
    1626                      .dwpsn  file "C:/ti/motorware/motorware_1_01_00_17/sw/drivers/adc/src/32b/f28x/f2802x/adc.h",line 684
    1627 0000005f 0EEE          MOVU      ACC,*+XAR6[5]         ; [CPU_] |684| 
    1628 00000060 1EAC          MOVL      XT,ACC                ; [CPU_] |684| 
    1629                      .dwpsn  file "C:/ti/motorware/motorware_1_01_00_17/sw/modules/hal/boards/boostxldrv8301_revB/f28x/f28
    1630 00000061 5605          IMPYL     P,XT,XAR7             ; [CPU_] |537| 
         00000062 00A7 
    1631 00000063 5663          QMPYL     ACC,XT,XAR7           ; [CPU_] |537| 
         00000064 00A7 
    1632 00000065 568B          ASR64     ACC:P,#12             ; [CPU_] |537| 
    1633 00000066 A9A9          MOVL      ACC,P                 ; [CPU_] |537| 
    1634 00000067 0395          SUBL      ACC,*+XAR5[AR0]       ; [CPU_] |537| 
    1635                      .dwpsn  file "C:/ti/motorware/motorware_1_01_00_17/sw/modules/hal/boards/boostxldrv8301_revB/f28x/f28
    1636 00000068 D008          MOVB      XAR0,#8               ; [CPU_] |538| 
    1637 00000069 1E94          MOVL      *+XAR4[AR0],ACC       ; [CPU_] |538| 
    1638                      .dwpsn  file "C:/ti/motorware/motorware_1_01_00_17/sw/modules/hal/boards/boostxldrv8301_revB/f28x/f28
    1639 0000006a D09C          MOVB      XAR0,#156             ; [CPU_] |542| 
    1640                      .dwpsn  file "C:/ti/motorware/motorware_1_01_00_17/sw/drivers/adc/src/32b/f28x/f2802x/adc.h",line 684
    1641 0000006b 0EF6          MOVU      ACC,*+XAR6[6]         ; [CPU_] |684| 
    1642 0000006c 1EAC          MOVL      XT,ACC                ; [CPU_] |684| 
    1643                      .dwpsn  file "C:/ti/motorware/motorware_1_01_00_17/sw/modules/hal/boards/boostxldrv8301_revB/f28x/f28
TMS320C2000 Assembler PC v15.12.3 Mon Mar 20 21:32:55 2017

Tools Copyright (c) 1996-2015 Texas Instruments Incorporated
C:\Users\Cameron\AppData\Local\Temp\0460811                          PAGE   33

    1644 0000006d 5605          IMPYL     P,XT,XAR7             ; [CPU_] |542| 
         0000006e 00A7 
    1645 0000006f 5663          QMPYL     ACC,XT,XAR7           ; [CPU_] |542| 
         00000070 00A7 
    1646 00000071 568B          ASR64     ACC:P,#12             ; [CPU_] |542| 
    1647 00000072 A9A9          MOVL      ACC,P                 ; [CPU_] |542| 
    1648 00000073 0395          SUBL      ACC,*+XAR5[AR0]       ; [CPU_] |542| 
    1649                      .dwpsn  file "C:/ti/motorware/motorware_1_01_00_17/sw/modules/hal/boards/boostxldrv8301_revB/f28x/f28
    1650 00000074 D00A          MOVB      XAR0,#10              ; [CPU_] |543| 
    1651 00000075 1E94          MOVL      *+XAR4[AR0],ACC       ; [CPU_] |543| 
    1652                      .dwpsn  file "C:/ti/motorware/motorware_1_01_00_17/sw/modules/hal/boards/boostxldrv8301_revB/f28x/f28
    1653 00000076 D00C          MOVB      XAR0,#12              ; [CPU_] |548| 
    1654                      .dwpsn  file "C:/ti/motorware/motorware_1_01_00_17/sw/drivers/adc/src/32b/f28x/f2802x/adc.h",line 684
    1655 00000077 0EFE          MOVU      ACC,*+XAR6[7]         ; [CPU_] |684| 
    1656 00000078 1EAC          MOVL      XT,ACC                ; [CPU_] |684| 
    1657                      .dwpsn  file "C:/ti/motorware/motorware_1_01_00_17/sw/modules/hal/boards/boostxldrv8301_revB/f28x/f28
    1658 00000079 5605          IMPYL     P,XT,XAR7             ; [CPU_] |547| 
         0000007a 00A7 
    1659 0000007b 5663          QMPYL     ACC,XT,XAR7           ; [CPU_] |547| 
         0000007c 00A7 
    1660 0000007d 568B          ASR64     ACC:P,#12             ; [CPU_] |547| 
    1661                      .dwpsn  file "C:/ti/motorware/motorware_1_01_00_17/sw/modules/hal/boards/boostxldrv8301_revB/f28x/f28
    1662 0000007e A994          MOVL      *+XAR4[AR0],P         ; [CPU_] |548| 
    1663                      .dwpsn  file "C:/ti/motorware/motorware_1_01_00_17/sw/solutions/instaspin_foc/src/proj_lab05b.c",line
    1664 0000007f A842          MOVL      *-SP[2],XAR4          ; [CPU_] |503| 
    1665 00000080 8A14-         MOVL      XAR4,@_ctrlHandle     ; [CPU_] |503| 
    1666 00000081 B244          MOVL      *-SP[4],XAR1          ; [CPU_] |503| 
    1667              $C$DW$181       .dwtag  DW_TAG_TI_branch
    1668                      .dwattr $C$DW$181, DW_AT_low_pc(0x00)
    1669                      .dwattr $C$DW$181, DW_AT_name("_CTRL_run")
    1670                      .dwattr $C$DW$181, DW_AT_TI_call
    1671              
    1672 00000082 7640!         LCR       #_CTRL_run            ; [CPU_] |503| 
         00000083 0000 
    1673                      ; call occurs [#_CTRL_run] ; [] |503| 
    1674 00000084 761F-         MOVW      DP,#_halHandle        ; [CPU_U] 
         00000085 0000 
    1675 00000086 027C          MOVB      ACC,#124              ; [CPU_] 
    1676 00000087 BE02          MOVB      XAR6,#2               ; [CPU_] 
    1677 00000088 070C-         ADDL      ACC,@_halHandle       ; [CPU_] 
    1678 00000089 8AA9          MOVL      XAR4,ACC              ; [CPU_] 
    1679 0000008a 3B01          SETC      SXM                   ; [CPU_] 
    1680 0000008b       $C$L3:    
    1681                      .dwpsn  file "C:/ti/motorware/motorware_1_01_00_17/sw/drivers/pwm/src/32b/f28x/f2802x/pwm.h",line 171
    1682 0000008b FF2F          MOV       ACC,#-512 << 15       ; [CPU_] |1717| 
         0000008c FE00 
    1683 0000008d 8781          MOVL      XT,*XAR1++            ; [CPU_] |1717| 
    1684                      .dwpsn  file "C:/ti/motorware/motorware_1_01_00_17/sw/modules/hal/boards/boostxldrv8301_revB/f28x/f28
    1685 0000008e 8384          MOVL      XAR5,*XAR4++          ; [CPU_] |1093| 
    1686                      .dwpsn  file "C:/ti/motorware/motorware_1_01_00_17/sw/drivers/pwm/src/32b/f28x/f2802x/pwm.h",line 171
    1687 0000008f 5605          IMPYL     P,XT,ACC              ; [CPU_] |1717| 
         00000090 00A9 
    1688 00000091 5663          QMPYL     ACC,XT,ACC            ; [CPU_] |1717| 
         00000092 00A9 
    1689 00000093 56A7          LSL64     ACC:P,#8              ; [CPU_] |1717| 
TMS320C2000 Assembler PC v15.12.3 Mon Mar 20 21:32:55 2017

Tools Copyright (c) 1996-2015 Texas Instruments Incorporated
C:\Users\Cameron\AppData\Local\Temp\0460811                          PAGE   34

    1690 00000094 2BAB          MOV       PL,#0                 ; [CPU_] |1717| 
    1691 00000095 28AA          MOV       PH,#128               ; [CPU_] |1717| 
         00000096 0080 
    1692 00000097 A9A0          MOVL      XAR0,P                ; [CPU_] |1717| 
    1693                      .dwpsn  file "C:/ti/motorware/motorware_1_01_00_17/sw/modules/hal/boards/boostxldrv8301_revB/f28x/f28
    1694 00000098 80ED          MOVZ      AR7,*+XAR5[5]         ; [CPU_] |1093| 
    1695                      .dwpsn  file "C:/ti/motorware/motorware_1_01_00_17/sw/drivers/pwm/src/32b/f28x/f2802x/pwm.h",line 171
    1696 00000099 2BAB          MOV       PL,#0                 ; [CPU_] |1717| 
    1697 0000009a 28AA          MOV       PH,#65408             ; [CPU_] |1717| 
         0000009b FF80 
    1698 0000009c 5650          MINL      ACC,XAR0              ; [CPU_] |1717| 
         0000009d 00A0 
    1699 0000009e 5661          MAXL      ACC,P                 ; [CPU_] |1717| 
         0000009f 00AB 
    1700 000000a0 D009          MOVB      XAR0,#9               ; [CPU_] |1717| 
    1701 000000a1 FF1F          ADD       ACC,#256 << 15        ; [CPU_] |1717| 
         000000a2 0100 
    1702 000000a3 1EAC          MOVL      XT,ACC                ; [CPU_] |1717| 
    1703 000000a4 5605          IMPYL     P,XT,XAR7             ; [CPU_] |1717| 
         000000a5 00A7 
    1704 000000a6 5663          QMPYL     ACC,XT,XAR7           ; [CPU_] |1717| 
         000000a7 00A7 
    1705 000000a8 56A7          LSL64     ACC:P,#8              ; [CPU_] |1717| 
    1706 000000a9 3100          MOV       P,#0                  ; [CPU_] |1717| 
    1707 000000aa 5650          MINL      ACC,XAR7              ; [CPU_] |1717| 
         000000ab 00A7 
    1708 000000ac 5661          MAXL      ACC,P                 ; [CPU_] |1717| 
         000000ad 00AB 
    1709 000000ae 9695          MOV       *+XAR5[AR0],AL        ; [CPU_] |1717| 
    1710                      .dwpsn  file "C:/ti/motorware/motorware_1_01_00_17/sw/modules/hal/boards/boostxldrv8301_revB/f28x/f28
    1711 000000af 000E          BANZ      $C$L3,AR6--           ; [CPU_] |1090| 
         000000b0 FFDC 
    1712                      ; branchcc occurs ; [] |1090| 
    1713 000000b1 761F-         MOVW      DP,#_ctrlHandle       ; [CPU_U] 
         000000b2 0000 
    1714                      .dwpsn  file "C:/ti/motorware/motorware_1_01_00_17/sw/solutions/instaspin_foc/src/proj_lab05b.c",line
    1715 000000b3 8A14-         MOVL      XAR4,@_ctrlHandle     ; [CPU_] |511| 
    1716              $C$DW$182       .dwtag  DW_TAG_TI_branch
    1717                      .dwattr $C$DW$182, DW_AT_low_pc(0x00)
    1718                      .dwattr $C$DW$182, DW_AT_name("_CTRL_setup")
    1719                      .dwattr $C$DW$182, DW_AT_TI_call
    1720              
    1721 000000b4 7640!         LCR       #_CTRL_setup          ; [CPU_] |511| 
         000000b5 0000 
    1722                      ; call occurs [#_CTRL_setup] ; [] |511| 
    1723 000000b6 FE84          SUBB      SP,#4                 ; [CPU_U] 
    1724                      .dwcfi  cfa_offset, -14
    1725 000000b7 C5BE          MOVL      XAR7,*--SP            ; [CPU_] 
    1726                      .dwcfi  cfa_offset, -12
    1727                      .dwcfi  restore_reg, 18
    1728 000000b8 C4BE          MOVL      XAR6,*--SP            ; [CPU_] 
    1729                      .dwcfi  cfa_offset, -10
    1730                      .dwcfi  restore_reg, 16
    1731 000000b9 83BE          MOVL      XAR5,*--SP            ; [CPU_] 
    1732                      .dwcfi  cfa_offset, -8
TMS320C2000 Assembler PC v15.12.3 Mon Mar 20 21:32:55 2017

Tools Copyright (c) 1996-2015 Texas Instruments Incorporated
C:\Users\Cameron\AppData\Local\Temp\0460811                          PAGE   35

    1733                      .dwcfi  restore_reg, 14
    1734 000000ba 8ABE          MOVL      XAR4,*--SP            ; [CPU_] 
    1735                      .dwcfi  cfa_offset, -6
    1736                      .dwcfi  restore_reg, 12
    1737 000000bb 87BE          MOVL      XT,*--SP              ; [CPU_] 
    1738                      .dwcfi  cfa_offset, -4
    1739                      .dwcfi  restore_reg, 22
    1740                      .dwcfi  restore_reg, 21
    1741 000000bc 0003          POP       AR1H:AR0H             ; [CPU_] 
    1742                      .dwcfi  cfa_offset, -2
    1743                      .dwcfi  restore_reg, 5
    1744                      .dwcfi  restore_reg, 7
    1745 000000bd 7617          NASP      ; [CPU_] 
    1746              $C$DW$183       .dwtag  DW_TAG_TI_branch
    1747                      .dwattr $C$DW$183, DW_AT_low_pc(0x00)
    1748                      .dwattr $C$DW$183, DW_AT_TI_return
    1749              
    1750 000000be 7602          IRET      ; [CPU_] 
    1751                      ; return occurs ; [] 
    1752                      .dwattr $C$DW$170, DW_AT_TI_end_file("C:/ti/motorware/motorware_1_01_00_17/sw/solutions/instaspin_foc
    1753                      .dwattr $C$DW$170, DW_AT_TI_end_line(0x203)
    1754                      .dwattr $C$DW$170, DW_AT_TI_end_column(0x01)
    1755                      .dwendentry
    1756                      .dwendtag $C$DW$170
    1757              
    1758 00000095               .sect   ".text"
    1759                      .clink
    1760                      .global _main
    1761              
    1762              $C$DW$184       .dwtag  DW_TAG_subprogram
    1763                      .dwattr $C$DW$184, DW_AT_name("main")
    1764                      .dwattr $C$DW$184, DW_AT_low_pc(_main)
    1765                      .dwattr $C$DW$184, DW_AT_high_pc(0x00)
    1766                      .dwattr $C$DW$184, DW_AT_TI_symbol_name("_main")
    1767                      .dwattr $C$DW$184, DW_AT_external
    1768                      .dwattr $C$DW$184, DW_AT_TI_begin_file("C:/ti/motorware/motorware_1_01_00_17/sw/solutions/instaspin_f
    1769                      .dwattr $C$DW$184, DW_AT_TI_begin_line(0x85)
    1770                      .dwattr $C$DW$184, DW_AT_TI_begin_column(0x06)
    1771                      .dwattr $C$DW$184, DW_AT_TI_max_frame_size(-28)
    1772                      .dwpsn  file "C:/ti/motorware/motorware_1_01_00_17/sw/solutions/instaspin_foc/src/proj_lab05b.c",line
    1773              
    1774                      .dwfde $C$DW$CIE, _main
    1775              
    1776              ;***************************************************************
    1777              ;* FNAME: _main                         FR SIZE:  26           *
    1778              ;*                                                             *
    1779              ;* FUNCTION ENVIRONMENT                                        *
    1780              ;*                                                             *
    1781              ;* FUNCTION PROPERTIES                                         *
    1782              ;*                            2 Parameter, 18 Auto,  6 SOE     *
    1783              ;***************************************************************
    1784              
    1785              _main:
    1786              ;* AR5   assigned to $O$C16
    1787              ;* AR2   assigned to $O$C17
TMS320C2000 Assembler PC v15.12.3 Mon Mar 20 21:32:55 2017

Tools Copyright (c) 1996-2015 Texas Instruments Incorporated
C:\Users\Cameron\AppData\Local\Temp\0460811                          PAGE   36

    1788              ;* AR5   assigned to $O$C18
    1789              ;* AR7   assigned to $O$C19
    1790              ;* AR7   assigned to $O$C20
    1791              ;* AR7   assigned to $O$C22
    1792              ;* XT    assigned to $O$C23
    1793              ;* AR6   assigned to $O$C24
    1794              ;* AR6   assigned to $O$C25
    1795              ;* AR6   assigned to $O$C26
    1796              ;* AR3   assigned to $O$K47
    1797              ;* AR5   assigned to _pie
    1798              $C$DW$185       .dwtag  DW_TAG_variable
    1799                      .dwattr $C$DW$185, DW_AT_name("pie")
    1800                      .dwattr $C$DW$185, DW_AT_TI_symbol_name("_pie")
    1801                      .dwattr $C$DW$185, DW_AT_type(*$C$DW$T$269)
    1802                      .dwattr $C$DW$185, DW_AT_location[DW_OP_reg14]
    1803              
    1804              ;* AR5   assigned to _obj
    1805              $C$DW$186       .dwtag  DW_TAG_variable
    1806                      .dwattr $C$DW$186, DW_AT_name("obj")
    1807                      .dwattr $C$DW$186, DW_AT_TI_symbol_name("_obj")
    1808                      .dwattr $C$DW$186, DW_AT_type(*$C$DW$T$253)
    1809                      .dwattr $C$DW$186, DW_AT_location[DW_OP_reg14]
    1810              
    1811              ;* AL    assigned to _state
    1812              $C$DW$187       .dwtag  DW_TAG_variable
    1813                      .dwattr $C$DW$187, DW_AT_name("state")
    1814                      .dwattr $C$DW$187, DW_AT_TI_symbol_name("_state")
    1815                      .dwattr $C$DW$187, DW_AT_type(*$C$DW$T$69)
    1816                      .dwattr $C$DW$187, DW_AT_location[DW_OP_reg0]
    1817              
    1818              ;* AL    assigned to _state
    1819              $C$DW$188       .dwtag  DW_TAG_variable
    1820                      .dwattr $C$DW$188, DW_AT_name("state")
    1821                      .dwattr $C$DW$188, DW_AT_TI_symbol_name("_state")
    1822                      .dwattr $C$DW$188, DW_AT_type(*$C$DW$T$69)
    1823                      .dwattr $C$DW$188, DW_AT_location[DW_OP_reg0]
    1824              
    1825              ;* AR4   assigned to _obj
    1826              $C$DW$189       .dwtag  DW_TAG_variable
    1827                      .dwattr $C$DW$189, DW_AT_name("obj")
    1828                      .dwattr $C$DW$189, DW_AT_TI_symbol_name("_obj")
    1829                      .dwattr $C$DW$189, DW_AT_type(*$C$DW$T$253)
    1830                      .dwattr $C$DW$189, DW_AT_location[DW_OP_reg12]
    1831              
    1832              ;* AH    assigned to _state
    1833              $C$DW$190       .dwtag  DW_TAG_variable
    1834                      .dwattr $C$DW$190, DW_AT_name("state")
    1835                      .dwattr $C$DW$190, DW_AT_TI_symbol_name("_state")
    1836                      .dwattr $C$DW$190, DW_AT_type(*$C$DW$T$69)
    1837                      .dwattr $C$DW$190, DW_AT_location[DW_OP_reg1]
    1838              
    1839              ;* AR5   assigned to _obj
    1840              $C$DW$191       .dwtag  DW_TAG_variable
    1841                      .dwattr $C$DW$191, DW_AT_name("obj")
    1842                      .dwattr $C$DW$191, DW_AT_TI_symbol_name("_obj")
TMS320C2000 Assembler PC v15.12.3 Mon Mar 20 21:32:55 2017

Tools Copyright (c) 1996-2015 Texas Instruments Incorporated
C:\Users\Cameron\AppData\Local\Temp\0460811                          PAGE   37

    1843                      .dwattr $C$DW$191, DW_AT_type(*$C$DW$T$253)
    1844                      .dwattr $C$DW$191, DW_AT_location[DW_OP_reg14]
    1845              
    1846              ;* AR6   assigned to _handle
    1847              $C$DW$192       .dwtag  DW_TAG_variable
    1848                      .dwattr $C$DW$192, DW_AT_name("handle")
    1849                      .dwattr $C$DW$192, DW_AT_TI_symbol_name("_handle")
    1850                      .dwattr $C$DW$192, DW_AT_type(*$C$DW$T$255)
    1851                      .dwattr $C$DW$192, DW_AT_location[DW_OP_reg16]
    1852              
    1853              ;* AR6   assigned to _obj
    1854              $C$DW$193       .dwtag  DW_TAG_variable
    1855                      .dwattr $C$DW$193, DW_AT_name("obj")
    1856                      .dwattr $C$DW$193, DW_AT_TI_symbol_name("_obj")
    1857                      .dwattr $C$DW$193, DW_AT_type(*$C$DW$T$253)
    1858                      .dwattr $C$DW$193, DW_AT_location[DW_OP_reg16]
    1859              
    1860              ;* AR5   assigned to _obj
    1861              $C$DW$194       .dwtag  DW_TAG_variable
    1862                      .dwattr $C$DW$194, DW_AT_name("obj")
    1863                      .dwattr $C$DW$194, DW_AT_TI_symbol_name("_obj")
    1864                      .dwattr $C$DW$194, DW_AT_type(*$C$DW$T$253)
    1865                      .dwattr $C$DW$194, DW_AT_location[DW_OP_reg14]
    1866              
    1867              ;* AL    assigned to _data
    1868              $C$DW$195       .dwtag  DW_TAG_variable
    1869                      .dwattr $C$DW$195, DW_AT_name("data")
    1870                      .dwattr $C$DW$195, DW_AT_TI_symbol_name("_data")
    1871                      .dwattr $C$DW$195, DW_AT_type(*$C$DW$T$22)
    1872                      .dwattr $C$DW$195, DW_AT_location[DW_OP_reg0]
    1873              
    1874              ;* AL    assigned to _maxAccel_pu
    1875              $C$DW$196       .dwtag  DW_TAG_variable
    1876                      .dwattr $C$DW$196, DW_AT_name("maxAccel_pu")
    1877                      .dwattr $C$DW$196, DW_AT_TI_symbol_name("_maxAccel_pu")
    1878                      .dwattr $C$DW$196, DW_AT_type(*$C$DW$T$31)
    1879                      .dwattr $C$DW$196, DW_AT_location[DW_OP_reg0]
    1880              
    1881              ;* AR6   assigned to _state
    1882              $C$DW$197       .dwtag  DW_TAG_variable
    1883                      .dwattr $C$DW$197, DW_AT_name("state")
    1884                      .dwattr $C$DW$197, DW_AT_TI_symbol_name("_state")
    1885                      .dwattr $C$DW$197, DW_AT_type(*$C$DW$T$69)
    1886                      .dwattr $C$DW$197, DW_AT_location[DW_OP_reg16]
    1887              
    1888              ;* AR4   assigned to _obj
    1889              $C$DW$198       .dwtag  DW_TAG_variable
    1890                      .dwattr $C$DW$198, DW_AT_name("obj")
    1891                      .dwattr $C$DW$198, DW_AT_TI_symbol_name("_obj")
    1892                      .dwattr $C$DW$198, DW_AT_type(*$C$DW$T$253)
    1893                      .dwattr $C$DW$198, DW_AT_location[DW_OP_reg12]
    1894              
    1895              $C$DW$199       .dwtag  DW_TAG_variable
    1896                      .dwattr $C$DW$199, DW_AT_name("ctrlState")
    1897                      .dwattr $C$DW$199, DW_AT_TI_symbol_name("_ctrlState")
TMS320C2000 Assembler PC v15.12.3 Mon Mar 20 21:32:55 2017

Tools Copyright (c) 1996-2015 Texas Instruments Incorporated
C:\Users\Cameron\AppData\Local\Temp\0460811                          PAGE   38

    1898                      .dwattr $C$DW$199, DW_AT_type(*$C$DW$T$39)
    1899                      .dwattr $C$DW$199, DW_AT_location[DW_OP_breg20 -15]
    1900              
    1901              ;* AL    assigned to _flag_ctrlStateChanged
    1902              $C$DW$200       .dwtag  DW_TAG_variable
    1903                      .dwattr $C$DW$200, DW_AT_name("flag_ctrlStateChanged")
    1904                      .dwattr $C$DW$200, DW_AT_TI_symbol_name("_flag_ctrlStateChanged")
    1905                      .dwattr $C$DW$200, DW_AT_type(*$C$DW$T$69)
    1906                      .dwattr $C$DW$200, DW_AT_location[DW_OP_reg0]
    1907              
    1908              ;* AR1   assigned to _obj
    1909              $C$DW$201       .dwtag  DW_TAG_variable
    1910                      .dwattr $C$DW$201, DW_AT_name("obj")
    1911                      .dwattr $C$DW$201, DW_AT_TI_symbol_name("_obj")
    1912                      .dwattr $C$DW$201, DW_AT_type(*$C$DW$T$233)
    1913                      .dwattr $C$DW$201, DW_AT_location[DW_OP_reg6]
    1914              
    1915              $C$DW$202       .dwtag  DW_TAG_variable
    1916                      .dwattr $C$DW$202, DW_AT_name("cnt")
    1917                      .dwattr $C$DW$202, DW_AT_TI_symbol_name("_cnt")
    1918                      .dwattr $C$DW$202, DW_AT_type(*$C$DW$T$32)
    1919                      .dwattr $C$DW$202, DW_AT_location[DW_OP_breg20 -16]
    1920              
    1921              ;* T     assigned to _cnt
    1922              $C$DW$203       .dwtag  DW_TAG_variable
    1923                      .dwattr $C$DW$203, DW_AT_name("cnt")
    1924                      .dwattr $C$DW$203, DW_AT_TI_symbol_name("_cnt")
    1925                      .dwattr $C$DW$203, DW_AT_type(*$C$DW$T$32)
    1926                      .dwattr $C$DW$203, DW_AT_location[DW_OP_reg22]
    1927              
    1928              ;* AL    assigned to _bias
    1929              $C$DW$204       .dwtag  DW_TAG_variable
    1930                      .dwattr $C$DW$204, DW_AT_name("bias")
    1931                      .dwattr $C$DW$204, DW_AT_TI_symbol_name("_bias")
    1932                      .dwattr $C$DW$204, DW_AT_type(*$C$DW$T$31)
    1933                      .dwattr $C$DW$204, DW_AT_location[DW_OP_reg0]
    1934              
    1935              ;* AL    assigned to _bias
    1936              $C$DW$205       .dwtag  DW_TAG_variable
    1937                      .dwattr $C$DW$205, DW_AT_name("bias")
    1938                      .dwattr $C$DW$205, DW_AT_TI_symbol_name("_bias")
    1939                      .dwattr $C$DW$205, DW_AT_type(*$C$DW$T$31)
    1940                      .dwattr $C$DW$205, DW_AT_location[DW_OP_reg0]
    1941              
    1942              ;* AR1   assigned to $O$K13
    1943              ;* AR2   assigned to $O$K13
    1944              ;* AR6   assigned to $O$K13
    1945              ;* AR2   assigned to $O$K13
    1946              ;* AR1   assigned to $O$K13
    1947              ;* AR4   assigned to $O$v1
    1948              ;* AR4   assigned to $O$v1
    1949              ;* AR4   assigned to $O$v1
    1950              ;* AR4   assigned to $O$v1
    1951              ;* AR1   assigned to $O$v1
    1952              ;* AR4   assigned to $O$v2
TMS320C2000 Assembler PC v15.12.3 Mon Mar 20 21:32:55 2017

Tools Copyright (c) 1996-2015 Texas Instruments Incorporated
C:\Users\Cameron\AppData\Local\Temp\0460811                          PAGE   39

    1953              ;* AR4   assigned to $O$v2
    1954              ;* AR4   assigned to $O$v2
    1955              ;* AR5   assigned to $O$v2
    1956              ;* AR4   assigned to $O$v2
    1957              $C$DW$206       .dwtag  DW_TAG_variable
    1958                      .dwattr $C$DW$206, DW_AT_name("version")
    1959                      .dwattr $C$DW$206, DW_AT_TI_symbol_name("_version")
    1960                      .dwattr $C$DW$206, DW_AT_type(*$C$DW$T$37)
    1961                      .dwattr $C$DW$206, DW_AT_location[DW_OP_breg20 -6]
    1962              
    1963                      .dwcfi  cfa_offset, -2
    1964                      .dwcfi  save_reg_to_mem, 26, 0
    1965 00000095 B2BD          MOVL      *SP++,XAR1            ; [CPU_] 
    1966                      .dwcfi  save_reg_to_mem, 7, 2
    1967                      .dwcfi  cfa_offset, -4
    1968 00000096 AABD          MOVL      *SP++,XAR2            ; [CPU_] 
    1969                      .dwcfi  save_reg_to_mem, 9, 4
    1970                      .dwcfi  cfa_offset, -6
    1971 00000097 A2BD          MOVL      *SP++,XAR3            ; [CPU_] 
    1972                      .dwcfi  save_reg_to_mem, 11, 6
    1973                      .dwcfi  cfa_offset, -8
    1974 00000098 FE14          ADDB      SP,#20                ; [CPU_U] 
    1975                      .dwcfi  cfa_offset, -28
    1976                      .dwpsn  file "C:/ti/motorware/motorware_1_01_00_17/sw/solutions/instaspin_foc/src/proj_lab05b.c",line
    1977 00000099 8F00!         MOVL      XAR4,#_RamfuncsRunStart ; [CPU_U] |150| 
         0000009a 0000 
    1978 0000009b 8F40!         MOVL      XAR5,#_RamfuncsLoadEnd ; [CPU_U] |150| 
         0000009c 0000 
    1979 0000009d A842          MOVL      *-SP[2],XAR4          ; [CPU_] |150| 
    1980 0000009e 8F00!         MOVL      XAR4,#_RamfuncsLoadStart ; [CPU_U] |150| 
         0000009f 0000 
    1981              $C$DW$207       .dwtag  DW_TAG_TI_branch
    1982                      .dwattr $C$DW$207, DW_AT_low_pc(0x00)
    1983                      .dwattr $C$DW$207, DW_AT_name("_memCopy")
    1984                      .dwattr $C$DW$207, DW_AT_TI_call
    1985              
    1986 000000a0 7640!         LCR       #_memCopy             ; [CPU_] |150| 
         000000a1 0000 
    1987                      ; call occurs [#_memCopy] ; [] |150| 
    1988                      .dwpsn  file "C:/ti/motorware/motorware_1_01_00_17/sw/solutions/instaspin_foc/src/proj_lab05b.c",line
    1989 000000a2 8F00!         MOVL      XAR4,#_hal            ; [CPU_U] |168| 
         000000a3 0000 
    1990 000000a4 02C4          MOVB      ACC,#196              ; [CPU_] |168| 
    1991              $C$DW$208       .dwtag  DW_TAG_TI_branch
    1992                      .dwattr $C$DW$208, DW_AT_low_pc(0x00)
    1993                      .dwattr $C$DW$208, DW_AT_name("_HAL_init")
    1994                      .dwattr $C$DW$208, DW_AT_TI_call
    1995              
    1996 000000a5 7640!         LCR       #_HAL_init            ; [CPU_] |168| 
         000000a6 0000 
    1997                      ; call occurs [#_HAL_init] ; [] |168| 
    1998                      .dwpsn  file "C:/ti/motorware/motorware_1_01_00_17/sw/solutions/instaspin_foc/src/proj_lab05b.c",line
    1999 000000a7 8D40-         MOVL      XAR1,#_gUserParams    ; [CPU_U] |172| 
         000000a8 0100 
    2000 000000a9 761F-         MOVW      DP,#_halHandle        ; [CPU_U] 
TMS320C2000 Assembler PC v15.12.3 Mon Mar 20 21:32:55 2017

Tools Copyright (c) 1996-2015 Texas Instruments Incorporated
C:\Users\Cameron\AppData\Local\Temp\0460811                          PAGE   40

         000000aa 0000 
    2001 000000ab B254          MOVL      *-SP[20],XAR1         ; [CPU_] |172| 
    2002                      .dwpsn  file "C:/ti/motorware/motorware_1_01_00_17/sw/solutions/instaspin_foc/src/proj_lab05b.c",line
    2003 000000ac A80C-         MOVL      @_halHandle,XAR4      ; [CPU_] |168| 
    2004                      .dwpsn  file "C:/ti/motorware/motorware_1_01_00_17/sw/solutions/instaspin_foc/src/proj_lab05b.c",line
    2005 000000ad 8AA1          MOVL      XAR4,XAR1             ; [CPU_] |172| 
    2006              $C$DW$209       .dwtag  DW_TAG_TI_branch
    2007                      .dwattr $C$DW$209, DW_AT_low_pc(0x00)
    2008                      .dwattr $C$DW$209, DW_AT_name("_USER_checkForErrors")
    2009                      .dwattr $C$DW$209, DW_AT_TI_call
    2010              
    2011 000000ae 7640!         LCR       #_USER_checkForErrors ; [CPU_] |172| 
         000000af 0000 
    2012                      ; call occurs [#_USER_checkForErrors] ; [] |172| 
    2013                      .dwpsn  file "C:/ti/motorware/motorware_1_01_00_17/sw/solutions/instaspin_foc/src/proj_lab05b.c",line
    2014 000000b0 8AA1          MOVL      XAR4,XAR1             ; [CPU_] |176| 
    2015              $C$DW$210       .dwtag  DW_TAG_TI_branch
    2016                      .dwattr $C$DW$210, DW_AT_low_pc(0x00)
    2017                      .dwattr $C$DW$210, DW_AT_name("_USER_getErrorCode")
    2018                      .dwattr $C$DW$210, DW_AT_TI_call
    2019              
    2020 000000b1 7640!         LCR       #_USER_getErrorCode   ; [CPU_] |176| 
         000000b2 0000 
    2021                      ; call occurs [#_USER_getErrorCode] ; [] |176| 
    2022 000000b3 8D40-         MOVL      XAR1,#_gMotorVars     ; [CPU_U] |176| 
         000000b4 0080 
    2023 000000b5 D00F          MOVB      XAR0,#15              ; [CPU_] |176| 
    2024 000000b6 9691          MOV       *+XAR1[AR0],AL        ; [CPU_] |176| 
    2025                      .dwpsn  file "C:/ti/motorware/motorware_1_01_00_17/sw/solutions/instaspin_foc/src/proj_lab05b.c",line
    2026 000000b7 D00F          MOVB      XAR0,#15              ; [CPU_] |180| 
    2027 000000b8 9291          MOV       AL,*+XAR1[AR0]        ; [CPU_] |180| 
    2028 000000b9 FFE0          B         $C$L25,NEQ            ; [CPU_] |180| 
         000000ba 029E 
    2029                      ; branchcc occurs ; [] |180| 
    2030 000000bb 8654          MOVL      XAR2,*-SP[20]         ; [CPU_] 
    2031                      .dwpsn  file "C:/ti/motorware/motorware_1_01_00_17/sw/solutions/instaspin_foc/src/proj_lab05b.c",line
    2032 000000bc 8AA2          MOVL      XAR4,XAR2             ; [CPU_] |190| 
    2033              $C$DW$211       .dwtag  DW_TAG_TI_branch
    2034                      .dwattr $C$DW$211, DW_AT_low_pc(0x00)
    2035                      .dwattr $C$DW$211, DW_AT_name("_USER_setParams")
    2036                      .dwattr $C$DW$211, DW_AT_TI_call
    2037              
    2038 000000bd 7640!         LCR       #_USER_setParams      ; [CPU_] |190| 
         000000be 0000 
    2039                      ; call occurs [#_USER_setParams] ; [] |190| 
    2040 000000bf 761F-         MOVW      DP,#_halHandle        ; [CPU_U] 
         000000c0 0000 
    2041                      .dwpsn  file "C:/ti/motorware/motorware_1_01_00_17/sw/solutions/instaspin_foc/src/proj_lab05b.c",line
    2042 000000c1 8A0C-         MOVL      XAR4,@_halHandle      ; [CPU_] |194| 
    2043 000000c2 83A2          MOVL      XAR5,XAR2             ; [CPU_] |194| 
    2044              $C$DW$212       .dwtag  DW_TAG_TI_branch
    2045                      .dwattr $C$DW$212, DW_AT_low_pc(0x00)
    2046                      .dwattr $C$DW$212, DW_AT_name("_HAL_setParams")
    2047                      .dwattr $C$DW$212, DW_AT_TI_call
    2048              
TMS320C2000 Assembler PC v15.12.3 Mon Mar 20 21:32:55 2017

Tools Copyright (c) 1996-2015 Texas Instruments Incorporated
C:\Users\Cameron\AppData\Local\Temp\0460811                          PAGE   41

    2049 000000c3 7640!         LCR       #_HAL_setParams       ; [CPU_] |194| 
         000000c4 0000 
    2050                      ; call occurs [#_HAL_setParams] ; [] |194| 
    2051                      .dwpsn  file "C:/ti/motorware/motorware_1_01_00_17/sw/solutions/instaspin_foc/src/proj_lab05b.c",line
    2052 000000c5 D500          MOVB      XAR5,#0               ; [CPU_] |202| 
    2053 000000c6 7680          MOVL      XAR6,#264             ; [CPU_U] |202| 
         000000c7 0108 
    2054 000000c8 8F00-         MOVL      XAR4,#_ctrl           ; [CPU_U] |202| 
         000000c9 01C0 
    2055 000000ca 06A6          MOVL      ACC,XAR6              ; [CPU_] |202| 
    2056              $C$DW$213       .dwtag  DW_TAG_TI_branch
    2057                      .dwattr $C$DW$213, DW_AT_low_pc(0x00)
    2058                      .dwattr $C$DW$213, DW_AT_name("_CTRL_initCtrl")
    2059                      .dwattr $C$DW$213, DW_AT_TI_call
    2060              
    2061 000000cb 7640!         LCR       #_CTRL_initCtrl       ; [CPU_] |202| 
         000000cc 0000 
    2062                      ; call occurs [#_CTRL_initCtrl] ; [] |202| 
    2063                      .dwpsn  file "C:/ti/motorware/motorware_1_01_00_17/sw/solutions/instaspin_foc/src/proj_lab05b.c",line
    2064 000000cd 5DAD          MOVZ      AR5,SP                ; [CPU_] |210| 
    2065 000000ce 761F-         MOVW      DP,#_ctrlHandle       ; [CPU_U] 
         000000cf 0000 
    2066                      .dwpsn  file "C:/ti/motorware/motorware_1_01_00_17/sw/solutions/instaspin_foc/src/proj_lab05b.c",line
    2067 000000d0 A814-         MOVL      @_ctrlHandle,XAR4     ; [CPU_] |202| 
    2068                      .dwpsn  file "C:/ti/motorware/motorware_1_01_00_17/sw/solutions/instaspin_foc/src/proj_lab05b.c",line
    2069 000000d1 DD86          SUBB      XAR5,#6               ; [CPU_U] |210| 
    2070 000000d2 5DA5          MOVZ      AR5,AR5               ; [CPU_] |210| 
    2071              $C$DW$214       .dwtag  DW_TAG_TI_branch
    2072                      .dwattr $C$DW$214, DW_AT_low_pc(0x00)
    2073                      .dwattr $C$DW$214, DW_AT_name("_CTRL_getVersion")
    2074                      .dwattr $C$DW$214, DW_AT_TI_call
    2075              
    2076 000000d3 7640!         LCR       #_CTRL_getVersion     ; [CPU_] |210| 
         000000d4 0000 
    2077                      ; call occurs [#_CTRL_getVersion] ; [] |210| 
    2078                      .dwpsn  file "C:/ti/motorware/motorware_1_01_00_17/sw/solutions/instaspin_foc/src/proj_lab05b.c",line
    2079 000000d5 5CAD          MOVZ      AR4,SP                ; [CPU_] |212| 
    2080 000000d6 DC86          SUBB      XAR4,#6               ; [CPU_U] |212| 
    2081 000000d7 80A4          MOVZ      AR7,AR4               ; [CPU_] |212| 
    2082 000000d8 D910          ADDB      XAR1,#16              ; [CPU_] |212| 
    2083 000000d9 761F-         MOVW      DP,#_ctrlHandle       ; [CPU_U] 
         000000da 0000 
    2084                      .dwpsn  file "C:/ti/motorware/motorware_1_01_00_17/sw/solutions/instaspin_foc/src/proj_lab05b.c",line
    2085 000000db 83A2          MOVL      XAR5,XAR2             ; [CPU_] |217| 
    2086                      .dwpsn  file "C:/ti/motorware/motorware_1_01_00_17/sw/solutions/instaspin_foc/src/proj_lab05b.c",line
    2087 000000dc F603          RPT       #3
    2088 000000dd 2481  ||     PREAD     *XAR1++,*XAR7         ; [CPU_] |212| 
    2089                      .dwpsn  file "C:/ti/motorware/motorware_1_01_00_17/sw/solutions/instaspin_foc/src/proj_lab05b.c",line
    2090 000000de 8A14-         MOVL      XAR4,@_ctrlHandle     ; [CPU_] |217| 
    2091              $C$DW$215       .dwtag  DW_TAG_TI_branch
    2092                      .dwattr $C$DW$215, DW_AT_low_pc(0x00)
    2093                      .dwattr $C$DW$215, DW_AT_name("_CTRL_setParams")
    2094                      .dwattr $C$DW$215, DW_AT_TI_call
    2095              
    2096 000000df 7640!         LCR       #_CTRL_setParams      ; [CPU_] |217| 
TMS320C2000 Assembler PC v15.12.3 Mon Mar 20 21:32:55 2017

Tools Copyright (c) 1996-2015 Texas Instruments Incorporated
C:\Users\Cameron\AppData\Local\Temp\0460811                          PAGE   42

         000000e0 0000 
    2097                      ; call occurs [#_CTRL_setParams] ; [] |217| 
    2098 000000e1 761F-         MOVW      DP,#_halHandle        ; [CPU_U] 
         000000e2 0000 
    2099                      .dwpsn  file "C:/ti/motorware/motorware_1_01_00_17/sw/solutions/instaspin_foc/src/proj_lab05b.c",line
    2100 000000e3 8A0C-         MOVL      XAR4,@_halHandle      ; [CPU_] |221| 
    2101              $C$DW$216       .dwtag  DW_TAG_TI_branch
    2102                      .dwattr $C$DW$216, DW_AT_low_pc(0x00)
    2103                      .dwattr $C$DW$216, DW_AT_name("_HAL_setupFaults")
    2104                      .dwattr $C$DW$216, DW_AT_TI_call
    2105              
    2106 000000e4 7640!         LCR       #_HAL_setupFaults     ; [CPU_] |221| 
         000000e5 0000 
    2107                      ; call occurs [#_HAL_setupFaults] ; [] |221| 
    2108 000000e6 761F-         MOVW      DP,#_halHandle        ; [CPU_U] 
         000000e7 0000 
    2109                      .dwpsn  file "C:/ti/motorware/motorware_1_01_00_17/sw/solutions/instaspin_foc/src/proj_lab05b.c",line
    2110 000000e8 8A0C-         MOVL      XAR4,@_halHandle      ; [CPU_] |225| 
    2111                      .dwpsn  file "C:/ti/motorware/motorware_1_01_00_17/sw/modules/hal/boards/boostxldrv8301_revB/f28x/f28
    2112 000000e9 D078          MOVB      XAR0,#120             ; [CPU_] |478| 
    2113 000000ea 8394          MOVL      XAR5,*+XAR4[AR0]      ; [CPU_] |478| 
    2114 000000eb 7622   EALLOW
    2115                      .dwpsn  file "C:/ti/motorware/motorware_1_01_00_17/sw/modules/hal/boards/boostxldrv8301_revB/f28x/f28
    2116 000000ec D0F0          MOVB      XAR0,#240             ; [CPU_] |483| 
    2117 000000ed 7680+         MOVL      XAR6,#_mainISR        ; [CPU_U] |483| 
         000000ee 0000 
    2118 000000ef C295          MOVL      *+XAR5[AR0],XAR6      ; [CPU_] |483| 
    2119                      .dwpsn  file "C:/ti/motorware/motorware_1_01_00_17/sw/modules/hal/boards/boostxldrv8301_revB/f28x/f28
    2120 000000f0 D0E0          MOVB      XAR0,#224             ; [CPU_] |488| 
    2121 000000f1 7680+         MOVL      XAR6,#_SCI_RX_ISR     ; [CPU_U] |488| 
         000000f2 0000 
    2122 000000f3 C295          MOVL      *+XAR5[AR0],XAR6      ; [CPU_] |488| 
    2123 000000f4 761A   EDIS
    2124 000000f5 FF69          SPM       #0                    ; [CPU_] 
    2125                      .dwpsn  file "C:/ti/motorware/motorware_1_01_00_17/sw/solutions/instaspin_foc/src/proj_lab05b.c",line
    2126              $C$DW$217       .dwtag  DW_TAG_TI_branch
    2127                      .dwattr $C$DW$217, DW_AT_low_pc(0x00)
    2128                      .dwattr $C$DW$217, DW_AT_name("_HAL_enableAdcInts")
    2129                      .dwattr $C$DW$217, DW_AT_TI_call
    2130              
    2131 000000f6 7640!         LCR       #_HAL_enableAdcInts   ; [CPU_] |229| 
         000000f7 0000 
    2132                      ; call occurs [#_HAL_enableAdcInts] ; [] |229| 
    2133 000000f8 761F-         MOVW      DP,#_halHandle        ; [CPU_U] 
         000000f9 0000 
    2134                      .dwpsn  file "C:/ti/motorware/motorware_1_01_00_17/sw/solutions/instaspin_foc/src/proj_lab05b.c",line
    2135 000000fa 8A0C-         MOVL      XAR4,@_halHandle      ; [CPU_] |233| 
    2136              $C$DW$218       .dwtag  DW_TAG_TI_branch
    2137                      .dwattr $C$DW$218, DW_AT_low_pc(0x00)
    2138                      .dwattr $C$DW$218, DW_AT_name("_HAL_enableGlobalInts")
    2139                      .dwattr $C$DW$218, DW_AT_TI_call
    2140              
    2141 000000fb 7640!         LCR       #_HAL_enableGlobalInts ; [CPU_] |233| 
         000000fc 0000 
    2142                      ; call occurs [#_HAL_enableGlobalInts] ; [] |233| 
TMS320C2000 Assembler PC v15.12.3 Mon Mar 20 21:32:55 2017

Tools Copyright (c) 1996-2015 Texas Instruments Incorporated
C:\Users\Cameron\AppData\Local\Temp\0460811                          PAGE   43

    2143 000000fd 761F-         MOVW      DP,#_halHandle        ; [CPU_U] 
         000000fe 0000 
    2144                      .dwpsn  file "C:/ti/motorware/motorware_1_01_00_17/sw/solutions/instaspin_foc/src/proj_lab05b.c",line
    2145 000000ff 8A0C-         MOVL      XAR4,@_halHandle      ; [CPU_] |237| 
    2146              $C$DW$219       .dwtag  DW_TAG_TI_branch
    2147                      .dwattr $C$DW$219, DW_AT_low_pc(0x00)
    2148                      .dwattr $C$DW$219, DW_AT_name("_HAL_enableDebugInt")
    2149                      .dwattr $C$DW$219, DW_AT_TI_call
    2150              
    2151 00000100 7640!         LCR       #_HAL_enableDebugInt  ; [CPU_] |237| 
         00000101 0000 
    2152                      ; call occurs [#_HAL_enableDebugInt] ; [] |237| 
    2153 00000102 761F-         MOVW      DP,#_halHandle        ; [CPU_U] 
         00000103 0000 
    2154                      .dwpsn  file "C:/ti/motorware/motorware_1_01_00_17/sw/solutions/instaspin_foc/src/proj_lab05b.c",line
    2155 00000104 8A0C-         MOVL      XAR4,@_halHandle      ; [CPU_] |241| 
    2156                      .dwpsn  file "C:/ti/motorware/motorware_1_01_00_17/sw/modules/hal/boards/boostxldrv8301_revB/f28x/f28
    2157 00000105 83A4          MOVL      XAR5,XAR4             ; [CPU_] |246| 
    2158 00000106 DD7E          ADDB      XAR5,#126             ; [CPU_] |246| 
    2159 00000107 7622   EALLOW
    2160                      .dwpsn  file "C:/ti/motorware/motorware_1_01_00_17/sw/drivers/pwm/src/32b/f28x/f2802x/pwm.h",line 156
    2161 00000108 D07C          MOVB      XAR0,#124             ; [CPU_] |1567| 
    2162 00000109 0218          MOVB      ACC,#24               ; [CPU_] |1567| 
    2163 0000010a 0794          ADDL      ACC,*+XAR4[AR0]       ; [CPU_] |1567| 
    2164 0000010b 1EA6          MOVL      XAR6,ACC              ; [CPU_] |1567| 
    2165 0000010c 1AC6          OR        *+XAR6[0],#0x0004     ; [CPU_] |1567| 
         0000010d 0004 
    2166 0000010e 761A   EDIS
    2167 0000010f 7622   EALLOW
    2168 00000110 0218          MOVB      ACC,#24               ; [CPU_] |1567| 
    2169 00000111 07C5          ADDL      ACC,*+XAR5[0]         ; [CPU_] |1567| 
    2170 00000112 1EA6          MOVL      XAR6,ACC              ; [CPU_] |1567| 
    2171 00000113 1AC6          OR        *+XAR6[0],#0x0004     ; [CPU_] |1567| 
         00000114 0004 
    2172 00000115 761A   EDIS
    2173 00000116 7622   EALLOW
    2174 00000117 0218          MOVB      ACC,#24               ; [CPU_] |1567| 
    2175 00000118 07D5          ADDL      ACC,*+XAR5[2]         ; [CPU_] |1567| 
    2176 00000119 83A9          MOVL      XAR5,ACC              ; [CPU_] |1567| 
    2177 0000011a 1AC5          OR        *+XAR5[0],#0x0004     ; [CPU_] |1567| 
         0000011b 0004 
    2178 0000011c 761A   EDIS
    2179 0000011d FF69          SPM       #0                    ; [CPU_] 
    2180                      .dwpsn  file "C:/ti/motorware/motorware_1_01_00_17/sw/solutions/instaspin_foc/src/proj_lab05b.c",line
    2181              $C$DW$220       .dwtag  DW_TAG_TI_branch
    2182                      .dwattr $C$DW$220, DW_AT_low_pc(0x00)
    2183                      .dwattr $C$DW$220, DW_AT_name("_HAL_enableDrv")
    2184                      .dwattr $C$DW$220, DW_AT_TI_call
    2185              
    2186 0000011e 7640!         LCR       #_HAL_enableDrv       ; [CPU_] |246| 
         0000011f 0000 
    2187                      ; call occurs [#_HAL_enableDrv] ; [] |246| 
    2188                      .dwpsn  file "C:/ti/motorware/motorware_1_01_00_17/sw/solutions/instaspin_foc/src/proj_lab05b.c",line
    2189 00000120 8DC0-         MOVL      XAR3,#_gDrvSpi8301Vars ; [CPU_U] |248| 
         00000121 0040 
TMS320C2000 Assembler PC v15.12.3 Mon Mar 20 21:32:55 2017

Tools Copyright (c) 1996-2015 Texas Instruments Incorporated
C:\Users\Cameron\AppData\Local\Temp\0460811                          PAGE   44

    2190 00000122 761F-         MOVW      DP,#_halHandle        ; [CPU_U] 
         00000123 0000 
    2191 00000124 83A3          MOVL      XAR5,XAR3             ; [CPU_] |248| 
    2192 00000125 8A0C-         MOVL      XAR4,@_halHandle      ; [CPU_] |248| 
    2193              $C$DW$221       .dwtag  DW_TAG_TI_branch
    2194                      .dwattr $C$DW$221, DW_AT_low_pc(0x00)
    2195                      .dwattr $C$DW$221, DW_AT_name("_HAL_setupDrvSpi")
    2196                      .dwattr $C$DW$221, DW_AT_TI_call
    2197              
    2198 00000126 7640!         LCR       #_HAL_setupDrvSpi     ; [CPU_] |248| 
         00000127 0000 
    2199                      ; call occurs [#_HAL_setupDrvSpi] ; [] |248| 
    2200 00000128 761F-         MOVW      DP,#_ctrlHandle       ; [CPU_U] 
         00000129 0000 
    2201                      .dwpsn  file "C:/ti/motorware/motorware_1_01_00_17/sw/modules/ctrl/src/32b/ctrl.h",line 1246,column 3
    2202 0000012a 02F1          MOVB      ACC,#241              ; [CPU_] |1246| 
    2203 0000012b 0714-         ADDL      ACC,@_ctrlHandle      ; [CPU_] |1246| 
    2204 0000012c 8AA9          MOVL      XAR4,ACC              ; [CPU_] |1246| 
    2205 0000012d 56BF          MOVB      *+XAR4[0],#1,UNC      ; [CPU_] |1246| 
         0000012e 01C4 
    2206                      .dwpsn  file "C:/ti/motorware/motorware_1_01_00_17/sw/solutions/instaspin_foc/src/proj_lab05b.c",line
    2207              $C$DW$222       .dwtag  DW_TAG_TI_branch
    2208                      .dwattr $C$DW$222, DW_AT_low_pc(0x00)
    2209                      .dwattr $C$DW$222, DW_AT_name("_USER_computeFlux_pu_to_Wb_sf")
    2210                      .dwattr $C$DW$222, DW_AT_TI_call
    2211              
    2212 0000012f 7640!         LCR       #_USER_computeFlux_pu_to_Wb_sf ; [CPU_] |264| 
         00000130 0000 
    2213                      ; call occurs [#_USER_computeFlux_pu_to_Wb_sf] ; [] |264| 
    2214 00000131 761F-         MOVW      DP,#_gFlux_pu_to_Wb_sf ; [CPU_U] 
         00000132 0000 
    2215 00000133 1E10-         MOVL      @_gFlux_pu_to_Wb_sf,ACC ; [CPU_] |264| 
    2216                      .dwpsn  file "C:/ti/motorware/motorware_1_01_00_17/sw/solutions/instaspin_foc/src/proj_lab05b.c",line
    2217              $C$DW$223       .dwtag  DW_TAG_TI_branch
    2218                      .dwattr $C$DW$223, DW_AT_low_pc(0x00)
    2219                      .dwattr $C$DW$223, DW_AT_name("_USER_computeFlux_pu_to_VpHz_sf")
    2220                      .dwattr $C$DW$223, DW_AT_TI_call
    2221              
    2222 00000134 7640!         LCR       #_USER_computeFlux_pu_to_VpHz_sf ; [CPU_] |265| 
         00000135 0000 
    2223                      ; call occurs [#_USER_computeFlux_pu_to_VpHz_sf] ; [] |265| 
    2224 00000136 761F-         MOVW      DP,#_gFlux_pu_to_VpHz_sf ; [CPU_U] 
         00000137 0000 
    2225 00000138 1E12-         MOVL      @_gFlux_pu_to_VpHz_sf,ACC ; [CPU_] |265| 
    2226                      .dwpsn  file "C:/ti/motorware/motorware_1_01_00_17/sw/solutions/instaspin_foc/src/proj_lab05b.c",line
    2227              $C$DW$224       .dwtag  DW_TAG_TI_branch
    2228                      .dwattr $C$DW$224, DW_AT_low_pc(0x00)
    2229                      .dwattr $C$DW$224, DW_AT_name("_USER_computeTorque_Ls_Id_Iq_pu_to_Nm_sf")
    2230                      .dwattr $C$DW$224, DW_AT_TI_call
    2231              
    2232 00000139 7640!         LCR       #_USER_computeTorque_Ls_Id_Iq_pu_to_Nm_sf ; [CPU_] |266| 
         0000013a 0000 
    2233                      ; call occurs [#_USER_computeTorque_Ls_Id_Iq_pu_to_Nm_sf] ; [] |266| 
    2234 0000013b 761F-         MOVW      DP,#_gTorque_Ls_Id_Iq_pu_to_Nm_sf ; [CPU_U] 
         0000013c 0000 
TMS320C2000 Assembler PC v15.12.3 Mon Mar 20 21:32:55 2017

Tools Copyright (c) 1996-2015 Texas Instruments Incorporated
C:\Users\Cameron\AppData\Local\Temp\0460811                          PAGE   45

    2235 0000013d 1E06-         MOVL      @_gTorque_Ls_Id_Iq_pu_to_Nm_sf,ACC ; [CPU_] |266| 
    2236                      .dwpsn  file "C:/ti/motorware/motorware_1_01_00_17/sw/solutions/instaspin_foc/src/proj_lab05b.c",line
    2237              $C$DW$225       .dwtag  DW_TAG_TI_branch
    2238                      .dwattr $C$DW$225, DW_AT_low_pc(0x00)
    2239                      .dwattr $C$DW$225, DW_AT_name("_USER_computeTorque_Flux_Iq_pu_to_Nm_sf")
    2240                      .dwattr $C$DW$225, DW_AT_TI_call
    2241              
    2242 0000013e 7640!         LCR       #_USER_computeTorque_Flux_Iq_pu_to_Nm_sf ; [CPU_] |267| 
         0000013f 0000 
    2243                      ; call occurs [#_USER_computeTorque_Flux_Iq_pu_to_Nm_sf] ; [] |267| 
    2244 00000140 761F-         MOVW      DP,#_gTorque_Flux_Iq_pu_to_Nm_sf ; [CPU_U] 
         00000141 0000 
    2245 00000142 1E08-         MOVL      @_gTorque_Flux_Iq_pu_to_Nm_sf,ACC ; [CPU_] |267| 
    2246 00000143       $C$L4:    
    2247 00000143 761F-         MOVW      DP,#_gMotorVars       ; [CPU_U] 
         00000144 0002 
    2248                      .dwpsn  file "C:/ti/motorware/motorware_1_01_00_17/sw/solutions/instaspin_foc/src/proj_lab05b.c",line
    2249 00000145 9200-         MOV       AL,@_gMotorVars       ; [CPU_] |273| 
    2250 00000146 61FD          B         $C$L4,EQ              ; [CPU_] |273| 
    2251                      ; branchcc occurs ; [] |273| 
    2252 00000147 761F-         MOVW      DP,#_ctrlHandle       ; [CPU_U] 
         00000148 0000 
    2253                      .dwpsn  file "C:/ti/motorware/motorware_1_01_00_17/sw/solutions/instaspin_foc/src/proj_lab05b.c",line
    2254 00000149 8B14-         MOVL      XAR1,@_ctrlHandle     ; [CPU_] |276| 
    2255                      .dwpsn  file "C:/ti/motorware/motorware_1_01_00_17/sw/modules/ctrl/src/32b/ctrl.h",line 1288,column 3
    2256 0000014a D0F4          MOVB      XAR0,#244             ; [CPU_] |1288| 
    2257 0000014b 56BF          MOVB      *+XAR1[AR0],#1,UNC    ; [CPU_] |1288| 
         0000014c 0191 
    2258                      .dwpsn  file "C:/ti/motorware/motorware_1_01_00_17/sw/solutions/instaspin_foc/src/proj_lab05b.c",line
    2259 0000014d FFEF          B         $C$L24,UNC            ; [CPU_] |279| 
         0000014e 01E2 
    2260                      ; branch occurs ; [] |279| 
    2261 0000014f       $C$L5:    
    2262                      .dwpsn  file "C:/ti/motorware/motorware_1_01_00_17/sw/solutions/instaspin_foc/src/proj_lab05b.c",line
    2263 0000014f 0A01-         INC       @_gCounter_updateGlobals ; [CPU_] |284| 
    2264                      .dwpsn  file "C:/ti/motorware/motorware_1_01_00_17/sw/modules/ctrl/src/32b/ctrl.h",line 1304,column 3
    2265 00000150 D0F5          MOVB      XAR0,#245             ; [CPU_] |1304| 
    2266                      .dwpsn  file "C:/ti/motorware/motorware_1_01_00_17/sw/solutions/instaspin_foc/src/proj_lab05b.c",line
    2267 00000151 92F2          MOV       AL,*+XAR2[6]          ; [CPU_] |287| 
    2268                      .dwpsn  file "C:/ti/motorware/motorware_1_01_00_17/sw/modules/ctrl/src/32b/ctrl.h",line 1304,column 3
    2269 00000152 9691          MOV       *+XAR1[AR0],AL        ; [CPU_] |1304| 
    2270                      .dwpsn  file "C:/ti/motorware/motorware_1_01_00_17/sw/solutions/instaspin_foc/src/proj_lab05b.c",line
    2271 00000153 D018          MOVB      XAR0,#24              ; [CPU_] |290| 
    2272 00000154 8A91          MOVL      XAR4,*+XAR1[AR0]      ; [CPU_] |290| 
    2273 00000155 92EA          MOV       AL,*+XAR2[5]          ; [CPU_] |290| 
    2274              $C$DW$226       .dwtag  DW_TAG_TI_branch
    2275                      .dwattr $C$DW$226, DW_AT_low_pc(0x00)
    2276                      .dwattr $C$DW$226, DW_AT_name("_EST_setFlag_enableRsRecalc")
    2277                      .dwattr $C$DW$226, DW_AT_TI_call
    2278              
    2279 00000156 7640!         LCR       #_EST_setFlag_enableRsRecalc ; [CPU_] |290| 
         00000157 0000 
    2280                      ; call occurs [#_EST_setFlag_enableRsRecalc] ; [] |290| 
    2281 00000158 761F-         MOVW      DP,#_ctrlHandle       ; [CPU_U] 
         00000159 0000 
TMS320C2000 Assembler PC v15.12.3 Mon Mar 20 21:32:55 2017

Tools Copyright (c) 1996-2015 Texas Instruments Incorporated
C:\Users\Cameron\AppData\Local\Temp\0460811                          PAGE   46

    2282                      .dwpsn  file "C:/ti/motorware/motorware_1_01_00_17/sw/solutions/instaspin_foc/src/proj_lab05b.c",line
    2283 0000015a 8A14-         MOVL      XAR4,@_ctrlHandle     ; [CPU_] |293| 
    2284                      .dwpsn  file "C:/ti/motorware/motorware_1_01_00_17/sw/modules/ctrl/src/32b/ctrl.h",line 1275,column 3
    2285 0000015b D0F3          MOVB      XAR0,#243             ; [CPU_] |1275| 
    2286                      .dwpsn  file "C:/ti/motorware/motorware_1_01_00_17/sw/solutions/instaspin_foc/src/proj_lab05b.c",line
    2287 0000015c 92FA          MOV       AL,*+XAR2[7]          ; [CPU_] |293| 
    2288                      .dwpsn  file "C:/ti/motorware/motorware_1_01_00_17/sw/modules/ctrl/src/32b/ctrl.h",line 1275,column 3
    2289 0000015d 9694          MOV       *+XAR4[AR0],AL        ; [CPU_] |1275| 
    2290                      .dwpsn  file "C:/ti/motorware/motorware_1_01_00_17/sw/modules/ctrl/src/32b/ctrl.h",line 1060,column 3
    2291 0000015e 92E4          MOV       AL,*+XAR4[4]          ; [CPU_] |1060| 
    2292 0000015f FFE1          B         $C$L16,EQ             ; [CPU_] |1060| 
         00000160 00E7 
    2293                      ; branchcc occurs ; [] |1060| 
    2294                      .dwpsn  file "C:/ti/motorware/motorware_1_01_00_17/sw/solutions/instaspin_foc/src/proj_lab05b.c",line
    2295              $C$DW$227       .dwtag  DW_TAG_TI_branch
    2296                      .dwattr $C$DW$227, DW_AT_low_pc(0x00)
    2297                      .dwattr $C$DW$227, DW_AT_name("_CTRL_updateState")
    2298                      .dwattr $C$DW$227, DW_AT_TI_call
    2299              
    2300 00000161 7640!         LCR       #_CTRL_updateState    ; [CPU_] |310| 
         00000162 0000 
    2301                      ; call occurs [#_CTRL_updateState] ; [] |310| 
    2302 00000163 761F-         MOVW      DP,#_ctrlHandle       ; [CPU_U] 
         00000164 0000 
    2303                      .dwpsn  file "C:/ti/motorware/motorware_1_01_00_17/sw/solutions/instaspin_foc/src/proj_lab05b.c",line
    2304 00000165 8A14-         MOVL      XAR4,@_ctrlHandle     ; [CPU_] |313| 
    2305 00000166 93CA          MOV       AH,*+XAR2[1]          ; [CPU_] |313| 
    2306                      .dwpsn  file "C:/ti/motorware/motorware_1_01_00_17/sw/modules/ctrl/src/32b/ctrl.h",line 1218,column 3
    2307 00000167 D0F0          MOVB      XAR0,#240             ; [CPU_] |1218| 
    2308                      .dwpsn  file "C:/ti/motorware/motorware_1_01_00_17/sw/solutions/instaspin_foc/src/proj_lab05b.c",line
    2309 00000168 5200          CMPB      AL,#0                 ; [CPU_] |315| 
    2310                      .dwpsn  file "C:/ti/motorware/motorware_1_01_00_17/sw/modules/ctrl/src/32b/ctrl.h",line 1218,column 3
    2311 00000169 9794          MOV       *+XAR4[AR0],AH        ; [CPU_] |1218| 
    2312                      .dwpsn  file "C:/ti/motorware/motorware_1_01_00_17/sw/solutions/instaspin_foc/src/proj_lab05b.c",line
    2313 0000016a FFE1          B         $C$L17,EQ             ; [CPU_] |315| 
         0000016b 00FC 
    2314                      ; branchcc occurs ; [] |315| 
    2315                      .dwpsn  file "C:/ti/motorware/motorware_1_01_00_17/sw/modules/ctrl/src/32b/ctrl.h",line 771,column 3,
    2316 0000016c 92E4          MOV       AL,*+XAR4[4]          ; [CPU_] |771| 
    2317 0000016d 964F          MOV       *-SP[15],AL           ; [CPU_] |771| 
    2318 0000016e 5202          CMPB      AL,#2                 ; [CPU_] |771| 
    2319 0000016f FFE1          B         $C$L13,EQ             ; [CPU_] |771| 
         00000170 00AE 
    2320                      ; branchcc occurs ; [] |771| 
    2321                      .dwpsn  file "C:/ti/motorware/motorware_1_01_00_17/sw/solutions/instaspin_foc/src/proj_lab05b.c",line
    2322 00000171 5203          CMPB      AL,#3                 ; [CPU_] |324| 
    2323 00000172 6120          B         $C$L6,EQ              ; [CPU_] |324| 
    2324                      ; branchcc occurs ; [] |324| 
    2325                      .dwpsn  file "C:/ti/motorware/motorware_1_01_00_17/sw/solutions/instaspin_foc/src/proj_lab05b.c",line
    2326 00000173 5201          CMPB      AL,#1                 ; [CPU_] |357| 
    2327 00000174 FFE0          B         $C$L15,NEQ            ; [CPU_] |357| 
         00000175 00C2 
    2328                      ; branchcc occurs ; [] |357| 
    2329                      .dwpsn  file "C:/ti/motorware/motorware_1_01_00_17/sw/modules/hal/boards/boostxldrv8301_revB/f28x/f28
    2330 00000176 C40C-         MOVL      XAR6,@_halHandle      ; [CPU_] |246| 
TMS320C2000 Assembler PC v15.12.3 Mon Mar 20 21:32:55 2017

Tools Copyright (c) 1996-2015 Texas Instruments Incorporated
C:\Users\Cameron\AppData\Local\Temp\0460811                          PAGE   47

    2331 00000177 83A6          MOVL      XAR5,XAR6             ; [CPU_] |246| 
    2332 00000178 DD7E          ADDB      XAR5,#126             ; [CPU_] |246| 
    2333 00000179 7622   EALLOW
    2334                      .dwpsn  file "C:/ti/motorware/motorware_1_01_00_17/sw/drivers/pwm/src/32b/f28x/f2802x/pwm.h",line 156
    2335 0000017a D07C          MOVB      XAR0,#124             ; [CPU_] |1567| 
    2336 0000017b 0218          MOVB      ACC,#24               ; [CPU_] |1567| 
    2337 0000017c 0796          ADDL      ACC,*+XAR6[AR0]       ; [CPU_] |1567| 
    2338 0000017d 1EA6          MOVL      XAR6,ACC              ; [CPU_] |1567| 
    2339 0000017e 1AC6          OR        *+XAR6[0],#0x0004     ; [CPU_] |1567| 
         0000017f 0004 
    2340 00000180 761A   EDIS
    2341 00000181 7622   EALLOW
    2342 00000182 0218          MOVB      ACC,#24               ; [CPU_] |1567| 
    2343 00000183 07C5          ADDL      ACC,*+XAR5[0]         ; [CPU_] |1567| 
    2344 00000184 1EA6          MOVL      XAR6,ACC              ; [CPU_] |1567| 
    2345 00000185 1AC6          OR        *+XAR6[0],#0x0004     ; [CPU_] |1567| 
         00000186 0004 
    2346 00000187 761A   EDIS
    2347 00000188 7622   EALLOW
    2348 00000189 0218          MOVB      ACC,#24               ; [CPU_] |1567| 
    2349 0000018a 07D5          ADDL      ACC,*+XAR5[2]         ; [CPU_] |1567| 
    2350 0000018b 83A9          MOVL      XAR5,ACC              ; [CPU_] |1567| 
    2351 0000018c 1AC5          OR        *+XAR5[0],#0x0004     ; [CPU_] |1567| 
         0000018d 0004 
    2352 0000018e 761A   EDIS
    2353                      .dwpsn  file "C:/ti/motorware/motorware_1_01_00_17/sw/solutions/instaspin_foc/src/proj_lab05b.c",line
    2354 0000018f 2BCA          MOV       *+XAR2[1],#0          ; [CPU_] |361| 
    2355 00000190 FFEF          B         $C$L15,UNC            ; [CPU_] |361| 
         00000191 00A6 
    2356                      ; branch occurs ; [] |361| 
    2357 00000192       $C$L6:    
    2358 00000192 761F-         MOVW      DP,#_gMotorVars+7     ; [CPU_U] 
         00000193 0002 
    2359                      .dwpsn  file "C:/ti/motorware/motorware_1_01_00_17/sw/solutions/instaspin_foc/src/proj_lab05b.c",line
    2360 00000194 9207-         MOV       AL,@_gMotorVars+7     ; [CPU_] |326| 
    2361 00000195 5201          CMPB      AL,#1                 ; [CPU_] |326| 
    2362 00000196 6124          B         $C$L7,EQ              ; [CPU_] |326| 
    2363                      ; branchcc occurs ; [] |326| 
    2364 00000197 761F-         MOVW      DP,#_halHandle        ; [CPU_U] 
         00000198 0000 
    2365                      .dwpsn  file "C:/ti/motorware/motorware_1_01_00_17/sw/solutions/instaspin_foc/src/proj_lab05b.c",line
    2366 00000199 C40C-         MOVL      XAR6,@_halHandle      ; [CPU_] |334| 
    2367                      .dwpsn  file "C:/ti/motorware/motorware_1_01_00_17/sw/modules/hal/boards/boostxldrv8301_revB/f28x/f28
    2368 0000019a D092          MOVB      XAR0,#146             ; [CPU_] |730| 
    2369 0000019b 28A9          MOV       AL,#2356              ; [CPU_] |730| 
         0000019c 0934 
    2370 0000019d 28A8          MOV       AH,#308               ; [CPU_] |730| 
         0000019e 0134 
    2371                      .dwpsn  file "C:/ti/motorware/motorware_1_01_00_17/sw/solutions/instaspin_foc/src/proj_lab05b.c",line
    2372 0000019f 83A6          MOVL      XAR5,XAR6             ; [CPU_] |334| 
    2373                      .dwpsn  file "C:/ti/motorware/motorware_1_01_00_17/sw/modules/hal/boards/boostxldrv8301_revB/f28x/f28
    2374 000001a0 1E96          MOVL      *+XAR6[AR0],ACC       ; [CPU_] |730| 
    2375 000001a1 D018          MOVB      XAR0,#24              ; [CPU_] |730| 
    2376 000001a2 28A9          MOV       AL,#46754             ; [CPU_] |730| 
         000001a3 B6A2 
TMS320C2000 Assembler PC v15.12.3 Mon Mar 20 21:32:55 2017

Tools Copyright (c) 1996-2015 Texas Instruments Incorporated
C:\Users\Cameron\AppData\Local\Temp\0460811                          PAGE   48

    2377 000001a4 28A8          MOV       AH,#307               ; [CPU_] |730| 
         000001a5 0133 
    2378                      .dwpsn  file "C:/ti/motorware/motorware_1_01_00_17/sw/solutions/instaspin_foc/src/proj_lab05b.c",line
    2379 000001a6 DD7C          ADDB      XAR5,#124             ; [CPU_] |334| 
    2380                      .dwpsn  file "C:/ti/motorware/motorware_1_01_00_17/sw/modules/hal/boards/boostxldrv8301_revB/f28x/f28
    2381 000001a7 1E95          MOVL      *+XAR5[AR0],ACC       ; [CPU_] |730| 
    2382 000001a8 D01A          MOVB      XAR0,#26              ; [CPU_] |730| 
    2383 000001a9 0200          MOVB      ACC,#0                ; [CPU_] |730| 
    2384 000001aa 1E95          MOVL      *+XAR5[AR0],ACC       ; [CPU_] |730| 
    2385                      .dwpsn  file "C:/ti/motorware/motorware_1_01_00_17/sw/modules/hal/boards/boostxldrv8301_revB/f28x/f28
    2386 000001ab D01C          MOVB      XAR0,#28              ; [CPU_] |734| 
    2387 000001ac 28A9          MOV       AL,#26632             ; [CPU_] |734| 
         000001ad 6808 
    2388 000001ae 9B78          MOV       AH,#120               ; [CPU_] |734| 
    2389 000001af 1E95          MOVL      *+XAR5[AR0],ACC       ; [CPU_] |734| 
    2390 000001b0 D01E          MOVB      XAR0,#30              ; [CPU_] |734| 
    2391 000001b1 28A9          MOV       AL,#7631              ; [CPU_] |734| 
         000001b2 1DCF 
    2392 000001b3 1E95          MOVL      *+XAR5[AR0],ACC       ; [CPU_] |734| 
    2393 000001b4 D020          MOVB      XAR0,#32              ; [CPU_] |734| 
    2394 000001b5 28A9          MOV       AL,#62889             ; [CPU_] |734| 
         000001b6 F5A9 
    2395 000001b7 9B77          MOV       AH,#119               ; [CPU_] |734| 
    2396 000001b8 1E95          MOVL      *+XAR5[AR0],ACC       ; [CPU_] |734| 
    2397 000001b9 6F3C          B         $C$L12,UNC            ; [CPU_] |734| 
    2398                      ; branch occurs ; [] |734| 
    2399 000001ba       $C$L7:    
    2400 000001ba 761F-         MOVW      DP,#_halHandle        ; [CPU_U] 
         000001bb 0000 
    2401                      .dwpsn  file "C:/ti/motorware/motorware_1_01_00_17/sw/solutions/instaspin_foc/src/proj_lab05b.c",line
    2402 000001bc C40C-         MOVL      XAR6,@_halHandle      ; [CPU_] |329| 
    2403 000001bd 83A6          MOVL      XAR5,XAR6             ; [CPU_] |329| 
    2404                      .dwpsn  file "C:/ti/motorware/motorware_1_01_00_17/sw/modules/hal/boards/boostxldrv8301_revB/f28x/f28
    2405 000001be 9A00          MOVB      AL,#0                 ; [CPU_] |1011| 
    2406 000001bf 9650          MOV       *-SP[16],AL           ; [CPU_] |1011| 
    2407                      .dwpsn  file "C:/ti/motorware/motorware_1_01_00_17/sw/solutions/instaspin_foc/src/proj_lab05b.c",line
    2408 000001c0 DD7C          ADDB      XAR5,#124             ; [CPU_] |329| 
    2409 000001c1 2901          CLRC      SXM                   ; [CPU_] 
    2410                      .dwpsn  file "C:/ti/motorware/motorware_1_01_00_17/sw/modules/hal/boards/boostxldrv8301_revB/f28x/f28
    2411 000001c2 6F14          B         $C$L9,UNC             ; [CPU_] |1011| 
    2412                      ; branch occurs ; [] |1011| 
    2413 000001c3       $C$L8:    
    2414                      .dwpsn  file "C:/ti/motorware/motorware_1_01_00_17/sw/modules/hal/boards/boostxldrv8301_revB/f28x/f28
    2415 000001c3 5603          MOV       ACC,AL << 1           ; [CPU_] |340| 
         000001c4 01A9 
    2416 000001c5 1EAC          MOVL      XT,ACC                ; [CPU_] |340| 
    2417                      .dwpsn  file "C:/ti/motorware/motorware_1_01_00_17/sw/modules/hal/boards/boostxldrv8301_revB/f28x/f28
    2418 000001c6 86A6          MOVL      XAR2,XAR6             ; [CPU_] |1015| 
    2419                      .dwpsn  file "C:/ti/motorware/motorware_1_01_00_17/sw/modules/hal/boards/boostxldrv8301_revB/f28x/f28
    2420 000001c7 06A6          MOVL      ACC,XAR6              ; [CPU_] |340| 
    2421 000001c8 07AC          ADDL      ACC,XT                ; [CPU_] |340| 
    2422 000001c9 1EA7          MOVL      XAR7,ACC              ; [CPU_] |340| 
    2423                      .dwpsn  file "C:/ti/motorware/motorware_1_01_00_17/sw/modules/hal/boards/boostxldrv8301_revB/f28x/f28
    2424 000001ca ABA9          MOVL      ACC,XT                ; [CPU_] |1015| 
    2425 000001cb 5601          ADDL      XAR2,ACC              ; [CPU_] |1015| 
TMS320C2000 Assembler PC v15.12.3 Mon Mar 20 21:32:55 2017

Tools Copyright (c) 1996-2015 Texas Instruments Incorporated
C:\Users\Cameron\AppData\Local\Temp\0460811                          PAGE   49

         000001cc 00A2 
    2426                      .dwpsn  file "C:/ti/motorware/motorware_1_01_00_17/sw/modules/hal/boards/boostxldrv8301_revB/f28x/f28
    2427 000001cd D092          MOVB      XAR0,#146             ; [CPU_] |340| 
    2428 000001ce 0697          MOVL      ACC,*+XAR7[AR0]       ; [CPU_] |340| 
    2429                      .dwpsn  file "C:/ti/motorware/motorware_1_01_00_17/sw/modules/hal/boards/boostxldrv8301_revB/f28x/f28
    2430 000001cf D00A          MOVB      XAR0,#10              ; [CPU_] |1015| 
    2431 000001d0 8E92          MOVL      XAR0,*+XAR2[AR0]      ; [CPU_] |1015| 
    2432 000001d1 07C0          ADDL      ACC,*+XAR0[0]         ; [CPU_] |1015| 
    2433                      .dwpsn  file "C:/ti/motorware/motorware_1_01_00_17/sw/modules/hal/boards/boostxldrv8301_revB/f28x/f28
    2434 000001d2 D092          MOVB      XAR0,#146             ; [CPU_] |730| 
    2435 000001d3 1E97          MOVL      *+XAR7[AR0],ACC       ; [CPU_] |730| 
    2436                      .dwpsn  file "C:/ti/motorware/motorware_1_01_00_17/sw/modules/hal/boards/boostxldrv8301_revB/f28x/f28
    2437 000001d4 0A50          INC       *-SP[16]              ; [CPU_] |1011| 
    2438                      .dwpsn  file "C:/ti/motorware/motorware_1_01_00_17/sw/modules/hal/boards/boostxldrv8301_revB/f28x/f28
    2439 000001d5 9250          MOV       AL,*-SP[16]           ; [CPU_] |730| 
    2440 000001d6       $C$L9:    
    2441                      .dwpsn  file "C:/ti/motorware/motorware_1_01_00_17/sw/modules/hal/boards/boostxldrv8301_revB/f28x/f28
    2442 000001d6 D0A4          MOVB      XAR0,#164             ; [CPU_] |1011| 
    2443 000001d7 5496          CMP       AL,*+XAR6[AR0]        ; [CPU_] |1011| 
    2444 000001d8 68EB          B         $C$L8,LO              ; [CPU_] |1011| 
    2445                      ; branchcc occurs ; [] |1011| 
    2446                      .dwpsn  file "C:/ti/motorware/motorware_1_01_00_17/sw/modules/hal/boards/boostxldrv8301_revB/f28x/f28
    2447 000001d9 2BAC          MOV       T,#0                  ; [CPU_] |1022| 
    2448 000001da 2901          CLRC      SXM                   ; [CPU_] 
    2449 000001db 6F16          B         $C$L11,UNC            ; [CPU_] |1022| 
    2450                      ; branch occurs ; [] |1022| 
    2451 000001dc       $C$L10:    
    2452                      .dwpsn  file "C:/ti/motorware/motorware_1_01_00_17/sw/modules/hal/boards/boostxldrv8301_revB/f28x/f28
    2453 000001dc 5603          MOV       ACC,AL << 1           ; [CPU_] |340| 
         000001dd 01A9 
    2454 000001de 1E52          MOVL      *-SP[18],ACC          ; [CPU_] |340| 
    2455 000001df C552          MOVL      XAR7,*-SP[18]         ; [CPU_] |340| 
    2456                      .dwpsn  file "C:/ti/motorware/motorware_1_01_00_17/sw/modules/hal/boards/boostxldrv8301_revB/f28x/f28
    2457 000001e0 86A6          MOVL      XAR2,XAR6             ; [CPU_] |1026| 
    2458                      .dwpsn  file "C:/ti/motorware/motorware_1_01_00_17/sw/modules/hal/boards/boostxldrv8301_revB/f28x/f28
    2459 000001e1 06A6          MOVL      ACC,XAR6              ; [CPU_] |340| 
    2460 000001e2 5601          ADDL      XAR7,ACC              ; [CPU_] |340| 
         000001e3 00A7 
    2461                      .dwpsn  file "C:/ti/motorware/motorware_1_01_00_17/sw/modules/hal/boards/boostxldrv8301_revB/f28x/f28
    2462 000001e4 0652          MOVL      ACC,*-SP[18]          ; [CPU_] |1026| 
    2463 000001e5 5601          ADDL      XAR2,ACC              ; [CPU_] |1026| 
         000001e6 00A2 
    2464                      .dwpsn  file "C:/ti/motorware/motorware_1_01_00_17/sw/modules/hal/boards/boostxldrv8301_revB/f28x/f28
    2465 000001e7 D098          MOVB      XAR0,#152             ; [CPU_] |340| 
    2466 000001e8 0697          MOVL      ACC,*+XAR7[AR0]       ; [CPU_] |340| 
    2467                      .dwpsn  file "C:/ti/motorware/motorware_1_01_00_17/sw/modules/hal/boards/boostxldrv8301_revB/f28x/f28
    2468 000001e9 D040          MOVB      XAR0,#64              ; [CPU_] |1026| 
    2469 000001ea 8E92          MOVL      XAR0,*+XAR2[AR0]      ; [CPU_] |1026| 
    2470 000001eb 07C0          ADDL      ACC,*+XAR0[0]         ; [CPU_] |1026| 
    2471                      .dwpsn  file "C:/ti/motorware/motorware_1_01_00_17/sw/modules/hal/boards/boostxldrv8301_revB/f28x/f28
    2472 000001ec D098          MOVB      XAR0,#152             ; [CPU_] |734| 
    2473 000001ed 1E97          MOVL      *+XAR7[AR0],ACC       ; [CPU_] |734| 
    2474 000001ee 92AC          MOV       AL,T                  ; [CPU_] |734| 
    2475                      .dwpsn  file "C:/ti/motorware/motorware_1_01_00_17/sw/modules/hal/boards/boostxldrv8301_revB/f28x/f28
    2476 000001ef 9C01          ADDB      AL,#1                 ; [CPU_] |1022| 
TMS320C2000 Assembler PC v15.12.3 Mon Mar 20 21:32:55 2017

Tools Copyright (c) 1996-2015 Texas Instruments Incorporated
C:\Users\Cameron\AppData\Local\Temp\0460811                          PAGE   50

    2477 000001f0 2DA9          MOV       T,AL                  ; [CPU_] |1022| 
    2478 000001f1       $C$L11:    
    2479                      .dwpsn  file "C:/ti/motorware/motorware_1_01_00_17/sw/modules/hal/boards/boostxldrv8301_revB/f28x/f28
    2480 000001f1 D0A5          MOVB      XAR0,#165             ; [CPU_] |1022| 
    2481 000001f2 92AC          MOV       AL,T                  ; [CPU_] |1022| 
    2482 000001f3 5496          CMP       AL,*+XAR6[AR0]        ; [CPU_] |1022| 
    2483 000001f4 68E8          B         $C$L10,LO             ; [CPU_] |1022| 
    2484                      ; branchcc occurs ; [] |1022| 
    2485 000001f5       $C$L12:    
    2486                      .dwpsn  file "C:/ti/motorware/motorware_1_01_00_17/sw/solutions/instaspin_foc/src/proj_lab05b.c",line
    2487 000001f5 D016          MOVB      XAR0,#22              ; [CPU_] |345| 
    2488 000001f6 7680-         MOVL      XAR6,#_gMotorVars+94  ; [CPU_U] |345| 
         000001f7 00DE 
    2489 000001f8 0695          MOVL      ACC,*+XAR5[AR0]       ; [CPU_] |345| 
    2490                      .dwpsn  file "C:/ti/motorware/motorware_1_01_00_17/sw/solutions/instaspin_foc/src/proj_lab05b.c",line
    2491 000001f9 D018          MOVB      XAR0,#24              ; [CPU_] |346| 
    2492                      .dwpsn  file "C:/ti/motorware/motorware_1_01_00_17/sw/solutions/instaspin_foc/src/proj_lab05b.c",line
    2493 000001fa 1EC6          MOVL      *+XAR6[0],ACC         ; [CPU_] |345| 
    2494                      .dwpsn  file "C:/ti/motorware/motorware_1_01_00_17/sw/solutions/instaspin_foc/src/proj_lab05b.c",line
    2495 000001fb 0695          MOVL      ACC,*+XAR5[AR0]       ; [CPU_] |346| 
    2496                      .dwpsn  file "C:/ti/motorware/motorware_1_01_00_17/sw/solutions/instaspin_foc/src/proj_lab05b.c",line
    2497 000001fc D01A          MOVB      XAR0,#26              ; [CPU_] |347| 
    2498                      .dwpsn  file "C:/ti/motorware/motorware_1_01_00_17/sw/solutions/instaspin_foc/src/proj_lab05b.c",line
    2499 000001fd 1ED6          MOVL      *+XAR6[2],ACC         ; [CPU_] |346| 
    2500                      .dwpsn  file "C:/ti/motorware/motorware_1_01_00_17/sw/solutions/instaspin_foc/src/proj_lab05b.c",line
    2501 000001fe 0695          MOVL      ACC,*+XAR5[AR0]       ; [CPU_] |347| 
    2502                      .dwpsn  file "C:/ti/motorware/motorware_1_01_00_17/sw/solutions/instaspin_foc/src/proj_lab05b.c",line
    2503 000001ff D01C          MOVB      XAR0,#28              ; [CPU_] |350| 
    2504                      .dwpsn  file "C:/ti/motorware/motorware_1_01_00_17/sw/solutions/instaspin_foc/src/proj_lab05b.c",line
    2505 00000200 1EE6          MOVL      *+XAR6[4],ACC         ; [CPU_] |347| 
    2506                      .dwpsn  file "C:/ti/motorware/motorware_1_01_00_17/sw/solutions/instaspin_foc/src/proj_lab05b.c",line
    2507 00000201 0695          MOVL      ACC,*+XAR5[AR0]       ; [CPU_] |350| 
    2508                      .dwpsn  file "C:/ti/motorware/motorware_1_01_00_17/sw/solutions/instaspin_foc/src/proj_lab05b.c",line
    2509 00000202 D01E          MOVB      XAR0,#30              ; [CPU_] |351| 
    2510                      .dwpsn  file "C:/ti/motorware/motorware_1_01_00_17/sw/solutions/instaspin_foc/src/proj_lab05b.c",line
    2511 00000203 1EF6          MOVL      *+XAR6[6],ACC         ; [CPU_] |350| 
    2512                      .dwpsn  file "C:/ti/motorware/motorware_1_01_00_17/sw/solutions/instaspin_foc/src/proj_lab05b.c",line
    2513 00000204 0695          MOVL      ACC,*+XAR5[AR0]       ; [CPU_] |351| 
    2514 00000205 D008          MOVB      XAR0,#8               ; [CPU_] |351| 
    2515 00000206 1E96          MOVL      *+XAR6[AR0],ACC       ; [CPU_] |351| 
    2516                      .dwpsn  file "C:/ti/motorware/motorware_1_01_00_17/sw/solutions/instaspin_foc/src/proj_lab05b.c",line
    2517 00000207 D020          MOVB      XAR0,#32              ; [CPU_] |352| 
    2518 00000208 0695          MOVL      ACC,*+XAR5[AR0]       ; [CPU_] |352| 
    2519 00000209 D00A          MOVB      XAR0,#10              ; [CPU_] |352| 
    2520 0000020a 1E96          MOVL      *+XAR6[AR0],ACC       ; [CPU_] |352| 
    2521 0000020b 7622   EALLOW
    2522                      .dwpsn  file "C:/ti/motorware/motorware_1_01_00_17/sw/drivers/pwm/src/32b/f28x/f2802x/pwm.h",line 951
    2523 0000020c 0217          MOVB      ACC,#23               ; [CPU_] |951| 
    2524 0000020d 07C5          ADDL      ACC,*+XAR5[0]         ; [CPU_] |951| 
    2525 0000020e 1EA6          MOVL      XAR6,ACC              ; [CPU_] |951| 
    2526 0000020f 56BF          MOVB      *+XAR6[0],#4,UNC      ; [CPU_] |951| 
         00000210 04C6 
    2527 00000211 761A   EDIS
    2528 00000212 7622   EALLOW
    2529 00000213 0217          MOVB      ACC,#23               ; [CPU_] |951| 
TMS320C2000 Assembler PC v15.12.3 Mon Mar 20 21:32:55 2017

Tools Copyright (c) 1996-2015 Texas Instruments Incorporated
C:\Users\Cameron\AppData\Local\Temp\0460811                          PAGE   51

    2530 00000214 07D5          ADDL      ACC,*+XAR5[2]         ; [CPU_] |951| 
    2531 00000215 1EA6          MOVL      XAR6,ACC              ; [CPU_] |951| 
    2532 00000216 56BF          MOVB      *+XAR6[0],#4,UNC      ; [CPU_] |951| 
         00000217 04C6 
    2533 00000218 761A   EDIS
    2534 00000219 7622   EALLOW
    2535 0000021a 0217          MOVB      ACC,#23               ; [CPU_] |951| 
    2536 0000021b 07E5          ADDL      ACC,*+XAR5[4]         ; [CPU_] |951| 
    2537                      .dwpsn  file "C:/ti/motorware/motorware_1_01_00_17/sw/drivers/pwm/src/32b/f28x/f2802x/pwm.h",line 955
    2538 0000021c 6F16          B         $C$L14,UNC            ; [CPU_] |955| 
    2539                      ; branch occurs ; [] |955| 
    2540 0000021d       $C$L13:    
    2541                      .dwpsn  file "C:/ti/motorware/motorware_1_01_00_17/sw/modules/hal/boards/boostxldrv8301_revB/f28x/f28
    2542 0000021d C50C-         MOVL      XAR7,@_halHandle      ; [CPU_] |288| 
    2543 0000021e 83A7          MOVL      XAR5,XAR7             ; [CPU_] |288| 
    2544 0000021f DD7E          ADDB      XAR5,#126             ; [CPU_] |288| 
    2545 00000220 7622   EALLOW
    2546                      .dwpsn  file "C:/ti/motorware/motorware_1_01_00_17/sw/drivers/pwm/src/32b/f28x/f2802x/pwm.h",line 951
    2547 00000221 D07C          MOVB      XAR0,#124             ; [CPU_] |951| 
    2548 00000222 0217          MOVB      ACC,#23               ; [CPU_] |951| 
    2549 00000223 0797          ADDL      ACC,*+XAR7[AR0]       ; [CPU_] |951| 
    2550 00000224 1EA6          MOVL      XAR6,ACC              ; [CPU_] |951| 
    2551 00000225 56BF          MOVB      *+XAR6[0],#4,UNC      ; [CPU_] |951| 
         00000226 04C6 
    2552 00000227 761A   EDIS
    2553 00000228 7622   EALLOW
    2554 00000229 0217          MOVB      ACC,#23               ; [CPU_] |951| 
    2555 0000022a 07C5          ADDL      ACC,*+XAR5[0]         ; [CPU_] |951| 
    2556 0000022b 1EA6          MOVL      XAR6,ACC              ; [CPU_] |951| 
    2557 0000022c 56BF          MOVB      *+XAR6[0],#4,UNC      ; [CPU_] |951| 
         0000022d 04C6 
    2558 0000022e 761A   EDIS
    2559 0000022f 7622   EALLOW
    2560 00000230 0217          MOVB      ACC,#23               ; [CPU_] |951| 
    2561 00000231 07D5          ADDL      ACC,*+XAR5[2]         ; [CPU_] |951| 
    2562 00000232       $C$L14:    
    2563 00000232 83A9          MOVL      XAR5,ACC              ; [CPU_] |951| 
    2564 00000233 56BF          MOVB      *+XAR5[0],#4,UNC      ; [CPU_] |951| 
         00000234 04C5 
    2565 00000235 761A   EDIS
    2566 00000236       $C$L15:    
    2567                      .dwpsn  file "C:/ti/motorware/motorware_1_01_00_17/sw/solutions/instaspin_foc/src/proj_lab05b.c",line
    2568 00000236 D0F5          MOVB      XAR0,#245             ; [CPU_] |364| 
    2569 00000237 9294          MOV       AL,*+XAR4[AR0]        ; [CPU_] |364| 
    2570 00000238 5201          CMPB      AL,#1                 ; [CPU_] |364| 
    2571 00000239 602D          B         $C$L17,NEQ            ; [CPU_] |364| 
    2572                      ; branchcc occurs ; [] |364| 
    2573 0000023a 924F          MOV       AL,*-SP[15]           ; [CPU_] 
    2574 0000023b 5201          CMPB      AL,#1                 ; [CPU_] |364| 
    2575 0000023c 692A          B         $C$L17,LOS            ; [CPU_] |364| 
    2576                      ; branchcc occurs ; [] |364| 
    2577 0000023d 761F-         MOVW      DP,#_gMotorVars+19    ; [CPU_U] 
         0000023e 0002 
    2578 0000023f 9213-         MOV       AL,@_gMotorVars+19    ; [CPU_] |364| 
    2579 00000240 5206          CMPB      AL,#6                 ; [CPU_] |364| 
TMS320C2000 Assembler PC v15.12.3 Mon Mar 20 21:32:55 2017

Tools Copyright (c) 1996-2015 Texas Instruments Incorporated
C:\Users\Cameron\AppData\Local\Temp\0460811                          PAGE   52

    2580 00000241 6025          B         $C$L17,NEQ            ; [CPU_] |364| 
    2581                      ; branchcc occurs ; [] |364| 
    2582 00000242 FF69          SPM       #0                    ; [CPU_] 
    2583                      .dwpsn  file "C:/ti/motorware/motorware_1_01_00_17/sw/solutions/instaspin_foc/src/proj_lab05b.c",line
    2584              $C$DW$228       .dwtag  DW_TAG_TI_branch
    2585                      .dwattr $C$DW$228, DW_AT_low_pc(0x00)
    2586                      .dwattr $C$DW$228, DW_AT_name("_USER_softwareUpdate1p6")
    2587                      .dwattr $C$DW$228, DW_AT_TI_call
    2588              
    2589 00000243 7640!         LCR       #_USER_softwareUpdate1p6 ; [CPU_] |369| 
         00000244 0000 
    2590                      ; call occurs [#_USER_softwareUpdate1p6] ; [] |369| 
    2591 00000245 6F21          B         $C$L17,UNC            ; [CPU_] |369| 
    2592                      ; branch occurs ; [] |369| 
    2593 00000246       $C$L16:    
    2594                      .dwpsn  file "C:/ti/motorware/motorware_1_01_00_17/sw/modules/ctrl/src/32b/ctrl.h",line 1218,column 3
    2595 00000246 D0F0          MOVB      XAR0,#240             ; [CPU_] |1218| 
    2596 00000247 761F-         MOVW      DP,#_gMotorVars       ; [CPU_U] 
         00000248 0002 
    2597 00000249 2B94          MOV       *+XAR4[AR0],#0        ; [CPU_] |1218| 
    2598                      .dwpsn  file "C:/ti/motorware/motorware_1_01_00_17/sw/solutions/instaspin_foc/src/proj_lab05b.c",line
    2599 0000024a 2B00-         MOV       @_gMotorVars,#0       ; [CPU_] |302| 
    2600 0000024b 761F-         MOVW      DP,#_halHandle        ; [CPU_U] 
         0000024c 0000 
    2601                      .dwpsn  file "C:/ti/motorware/motorware_1_01_00_17/sw/modules/hal/boards/boostxldrv8301_revB/f28x/f28
    2602 0000024d 830C-         MOVL      XAR5,@_halHandle      ; [CPU_] |246| 
    2603 0000024e 8AA5          MOVL      XAR4,XAR5             ; [CPU_] |246| 
    2604 0000024f DC7E          ADDB      XAR4,#126             ; [CPU_] |246| 
    2605 00000250 7622   EALLOW
    2606                      .dwpsn  file "C:/ti/motorware/motorware_1_01_00_17/sw/drivers/pwm/src/32b/f28x/f2802x/pwm.h",line 156
    2607 00000251 0218          MOVB      ACC,#24               ; [CPU_] |1567| 
    2608 00000252 D07C          MOVB      XAR0,#124             ; [CPU_] |1567| 
    2609 00000253 0795          ADDL      ACC,*+XAR5[AR0]       ; [CPU_] |1567| 
    2610 00000254 83A9          MOVL      XAR5,ACC              ; [CPU_] |1567| 
    2611 00000255 1AC5          OR        *+XAR5[0],#0x0004     ; [CPU_] |1567| 
         00000256 0004 
    2612 00000257 761A   EDIS
    2613 00000258 7622   EALLOW
    2614 00000259 0218          MOVB      ACC,#24               ; [CPU_] |1567| 
    2615 0000025a 07C4          ADDL      ACC,*+XAR4[0]         ; [CPU_] |1567| 
    2616 0000025b 83A9          MOVL      XAR5,ACC              ; [CPU_] |1567| 
    2617 0000025c 1AC5          OR        *+XAR5[0],#0x0004     ; [CPU_] |1567| 
         0000025d 0004 
    2618 0000025e 761A   EDIS
    2619 0000025f 7622   EALLOW
    2620 00000260 0218          MOVB      ACC,#24               ; [CPU_] |1567| 
    2621 00000261 07D4          ADDL      ACC,*+XAR4[2]         ; [CPU_] |1567| 
    2622 00000262 8AA9          MOVL      XAR4,ACC              ; [CPU_] |1567| 
    2623 00000263 1AC4          OR        *+XAR4[0],#0x0004     ; [CPU_] |1567| 
         00000264 0004 
    2624 00000265 761A   EDIS
    2625 00000266       $C$L17:    
    2626                      .dwpsn  file "C:/ti/motorware/motorware_1_01_00_17/sw/solutions/instaspin_foc/src/proj_lab05b.c",line
    2627 00000266 D018          MOVB      XAR0,#24              ; [CPU_] |376| 
    2628 00000267 FF69          SPM       #0                    ; [CPU_] 
TMS320C2000 Assembler PC v15.12.3 Mon Mar 20 21:32:55 2017

Tools Copyright (c) 1996-2015 Texas Instruments Incorporated
C:\Users\Cameron\AppData\Local\Temp\0460811                          PAGE   53

    2629 00000268 8A91          MOVL      XAR4,*+XAR1[AR0]      ; [CPU_] |376| 
    2630              $C$DW$229       .dwtag  DW_TAG_TI_branch
    2631                      .dwattr $C$DW$229, DW_AT_low_pc(0x00)
    2632                      .dwattr $C$DW$229, DW_AT_name("_EST_isMotorIdentified")
    2633                      .dwattr $C$DW$229, DW_AT_TI_call
    2634              
    2635 00000269 7640!         LCR       #_EST_isMotorIdentified ; [CPU_] |376| 
         0000026a 0000 
    2636                      ; call occurs [#_EST_isMotorIdentified] ; [] |376| 
    2637 0000026b 5200          CMPB      AL,#0                 ; [CPU_] |376| 
    2638 0000026c FFE1          B         $C$L21,EQ             ; [CPU_] |376| 
         0000026d 0091 
    2639                      ; branchcc occurs ; [] |376| 
    2640                      .dwpsn  file "C:/ti/motorware/motorware_1_01_00_17/sw/solutions/instaspin_foc/src/proj_lab05b.c",line
    2641 0000026e D018          MOVB      XAR0,#24              ; [CPU_] |379| 
    2642 0000026f 761F-         MOVW      DP,#_gMaxCurrentSlope ; [CPU_U] 
         00000270 0000 
    2643 00000271 8A91          MOVL      XAR4,*+XAR1[AR0]      ; [CPU_] |379| 
    2644 00000272 060A-         MOVL      ACC,@_gMaxCurrentSlope ; [CPU_] |379| 
    2645              $C$DW$230       .dwtag  DW_TAG_TI_branch
    2646                      .dwattr $C$DW$230, DW_AT_low_pc(0x00)
    2647                      .dwattr $C$DW$230, DW_AT_name("_EST_setMaxCurrentSlope_pu")
    2648                      .dwattr $C$DW$230, DW_AT_TI_call
    2649              
    2650 00000273 7640!         LCR       #_EST_setMaxCurrentSlope_pu ; [CPU_] |379| 
         00000274 0000 
    2651                      ; call occurs [#_EST_setMaxCurrentSlope_pu] ; [] |379| 
    2652 00000275 761F-         MOVW      DP,#_gMotorVars+2     ; [CPU_U] 
         00000276 0002 
    2653                      .dwpsn  file "C:/ti/motorware/motorware_1_01_00_17/sw/solutions/instaspin_foc/src/proj_lab05b.c",line
    2654 00000277 56BF-         MOVB      @_gMotorVars+2,#1,UNC ; [CPU_] |380| 
         00000278 0102 
    2655 00000279 761F-         MOVW      DP,#_halHandle        ; [CPU_U] 
         0000027a 0000 
    2656                      .dwpsn  file "C:/ti/motorware/motorware_1_01_00_17/sw/solutions/instaspin_foc/src/proj_lab05b.c",line
    2657 0000027b 8A0C-         MOVL      XAR4,@_halHandle      ; [CPU_] |384| 
    2658                      .dwpsn  file "C:/ti/motorware/motorware_1_01_00_17/sw/drivers/sci/src/32b/f28x/f2806x/sci.h",line 659
    2659 0000027c D0C2          MOVB      XAR0,#194             ; [CPU_] |659| 
    2660 0000027d 8394          MOVL      XAR5,*+XAR4[AR0]      ; [CPU_] |659| 
    2661 0000027e 46ED          TBIT      *+XAR5[5],#6          ; [CPU_] |659| 
    2662 0000027f 6D07          B         $C$L18,TC             ; [CPU_] |659| 
    2663                      ; branchcc occurs ; [] |659| 
    2664                      .dwpsn  file "C:/ti/motorware/motorware_1_01_00_17/sw/solutions/instaspin_foc/src/proj_lab05b.c",line
    2665 00000280 0A04-         INC       @_counter             ; [CPU_] |391| 
    2666 00000281 9204-         MOV       AL,@_counter          ; [CPU_] |391| 
    2667 00000282 5264          CMPB      AL,#100               ; [CPU_] |391| 
    2668 00000283 6509          B         $C$L19,LEQ            ; [CPU_] |391| 
    2669                      ; branchcc occurs ; [] |391| 
    2670                      .dwpsn  file "C:/ti/motorware/motorware_1_01_00_17/sw/solutions/instaspin_foc/src/proj_lab05b.c",line
    2671 00000284 2B00-         MOV       @_global_speed,#0     ; [CPU_] |393| 
    2672 00000285 6F07          B         $C$L19,UNC            ; [CPU_] |393| 
    2673                      ; branch occurs ; [] |393| 
    2674 00000286       $C$L18:    
    2675                      .dwpsn  file "C:/ti/motorware/motorware_1_01_00_17/sw/drivers/sci/src/32b/f28x/f2806x/sci.h",line 625
    2676 00000286 D0C2          MOVB      XAR0,#194             ; [CPU_] |625| 
TMS320C2000 Assembler PC v15.12.3 Mon Mar 20 21:32:55 2017

Tools Copyright (c) 1996-2015 Texas Instruments Incorporated
C:\Users\Cameron\AppData\Local\Temp\0460811                          PAGE   54

    2677 00000287 8A94          MOVL      XAR4,*+XAR4[AR0]      ; [CPU_] |625| 
    2678 00000288 92FC          MOV       AL,*+XAR4[7]          ; [CPU_] |625| 
    2679                      .dwpsn  file "C:/ti/motorware/motorware_1_01_00_17/sw/solutions/instaspin_foc/src/proj_lab05b.c",line
    2680 00000289 2B04-         MOV       @_counter,#0          ; [CPU_] |387| 
    2681                      .dwpsn  file "C:/ti/motorware/motorware_1_01_00_17/sw/solutions/instaspin_foc/src/proj_lab05b.c",line
    2682 0000028a 9C81          ADDB      AL,#-127              ; [CPU_] |386| 
    2683 0000028b 9600-         MOV       @_global_speed,AL     ; [CPU_] |386| 
    2684 0000028c       $C$L19:    
    2685                      .dwpsn  file "C:/ti/motorware/motorware_1_01_00_17/sw/solutions/instaspin_foc/src/proj_lab05b.c",line
    2686 0000028c 9200-         MOV       AL,@_global_speed     ; [CPU_] |395| 
    2687              $C$DW$231       .dwtag  DW_TAG_TI_branch
    2688                      .dwattr $C$DW$231, DW_AT_low_pc(0x00)
    2689                      .dwattr $C$DW$231, DW_AT_name("I$$TOFS")
    2690                      .dwattr $C$DW$231, DW_AT_TI_call
    2691              
    2692 0000028d 7640!         LCR       #I$$TOFS              ; [CPU_] |395| 
         0000028e 0000 
    2693                      ; call occurs [#I$$TOFS] ; [] |395| 
    2694 0000028f 1EA6          MOVL      XAR6,ACC              ; [CPU_] |395| 
    2695 00000290 9A00          MOV       AL,#0                 ; [CPU_] |395| 
    2696 00000291 28A8          MOV       AH,#17130             ; [CPU_] |395| 
         00000292 42EA 
    2697 00000293 1E42          MOVL      *-SP[2],ACC           ; [CPU_] |395| 
    2698 00000294 06A6          MOVL      ACC,XAR6              ; [CPU_] |395| 
    2699              $C$DW$232       .dwtag  DW_TAG_TI_branch
    2700                      .dwattr $C$DW$232, DW_AT_low_pc(0x00)
    2701                      .dwattr $C$DW$232, DW_AT_name("FS$$MPY")
    2702                      .dwattr $C$DW$232, DW_AT_TI_call
    2703              
    2704 00000295 7640!         LCR       #FS$$MPY              ; [CPU_] |395| 
         00000296 0000 
    2705                      ; call occurs [#FS$$MPY] ; [] |395| 
    2706 00000297 1EA6          MOVL      XAR6,ACC              ; [CPU_] |395| 
    2707 00000298 9A00          MOV       AL,#0                 ; [CPU_] |395| 
    2708 00000299 28A8          MOV       AH,#17530             ; [CPU_] |395| 
         0000029a 447A 
    2709 0000029b 1E42          MOVL      *-SP[2],ACC           ; [CPU_] |395| 
    2710 0000029c 06A6          MOVL      ACC,XAR6              ; [CPU_] |395| 
    2711              $C$DW$233       .dwtag  DW_TAG_TI_branch
    2712                      .dwattr $C$DW$233, DW_AT_low_pc(0x00)
    2713                      .dwattr $C$DW$233, DW_AT_name("FS$$DIV")
    2714                      .dwattr $C$DW$233, DW_AT_TI_call
    2715              
    2716 0000029d 7640!         LCR       #FS$$DIV              ; [CPU_] |395| 
         0000029e 0000 
    2717                      ; call occurs [#FS$$DIV] ; [] |395| 
    2718 0000029f 761F-         MOVW      DP,#_global_krpm      ; [CPU_U] 
         000002a0 0000 
    2719 000002a1 3B01          SETC      SXM                   ; [CPU_] 
    2720 000002a2 86A9          MOVL      XAR2,ACC              ; [CPU_] |395| 
    2721 000002a3 1E0E-         MOVL      @_global_krpm,ACC     ; [CPU_] |395| 
    2722                      .dwpsn  file "C:/ti/motorware/motorware_1_01_00_17/sw/solutions/instaspin_foc/src/proj_lab05b.c",line
    2723 000002a4 FF2F          MOV       ACC,#-32032 << 15     ; [CPU_] |396| 
         000002a5 82E0 
    2724 000002a6 1E42          MOVL      *-SP[2],ACC           ; [CPU_] |396| 
TMS320C2000 Assembler PC v15.12.3 Mon Mar 20 21:32:55 2017

Tools Copyright (c) 1996-2015 Texas Instruments Incorporated
C:\Users\Cameron\AppData\Local\Temp\0460811                          PAGE   55

    2725 000002a7 AAA9          MOVL      ACC,XAR2              ; [CPU_] |396| 
    2726              $C$DW$234       .dwtag  DW_TAG_TI_branch
    2727                      .dwattr $C$DW$234, DW_AT_low_pc(0x00)
    2728                      .dwattr $C$DW$234, DW_AT_name("FS$$CMP")
    2729                      .dwattr $C$DW$234, DW_AT_TI_call
    2730              
    2731 000002a8 7640!         LCR       #FS$$CMP              ; [CPU_] |396| 
         000002a9 0000 
    2732                      ; call occurs [#FS$$CMP] ; [] |396| 
    2733 000002aa 5200          CMPB      AL,#0                 ; [CPU_] |396| 
    2734 000002ab 6422          B         $C$L20,LT             ; [CPU_] |396| 
    2735                      ; branchcc occurs ; [] |396| 
    2736 000002ac 9A00          MOV       AL,#0                 ; [CPU_] |396| 
    2737 000002ad 28A8          MOV       AH,#16752             ; [CPU_] |396| 
         000002ae 4170 
    2738 000002af 1E42          MOVL      *-SP[2],ACC           ; [CPU_] |396| 
    2739 000002b0 AAA9          MOVL      ACC,XAR2              ; [CPU_] |396| 
    2740              $C$DW$235       .dwtag  DW_TAG_TI_branch
    2741                      .dwattr $C$DW$235, DW_AT_low_pc(0x00)
    2742                      .dwattr $C$DW$235, DW_AT_name("FS$$CMP")
    2743                      .dwattr $C$DW$235, DW_AT_TI_call
    2744              
    2745 000002b1 7640!         LCR       #FS$$CMP              ; [CPU_] |396| 
         000002b2 0000 
    2746                      ; call occurs [#FS$$CMP] ; [] |396| 
    2747 000002b3 5200          CMPB      AL,#0                 ; [CPU_] |396| 
    2748 000002b4 6219          B         $C$L20,GT             ; [CPU_] |396| 
    2749                      ; branchcc occurs ; [] |396| 
    2750                      .dwpsn  file "C:/ti/motorware/motorware_1_01_00_17/sw/solutions/instaspin_foc/src/proj_lab05b.c",line
    2751 000002b5 5CAD          MOVZ      AR4,SP                ; [CPU_] |398| 
    2752 000002b6 AAA9          MOVL      ACC,XAR2              ; [CPU_] |398| 
    2753 000002b7 DC8E          SUBB      XAR4,#14              ; [CPU_U] |398| 
    2754 000002b8 88A4          MOVZ      AR6,AR4               ; [CPU_] |398| 
    2755              $C$DW$236       .dwtag  DW_TAG_TI_branch
    2756                      .dwattr $C$DW$236, DW_AT_low_pc(0x00)
    2757                      .dwattr $C$DW$236, DW_AT_name("FS$$TOFD")
    2758                      .dwattr $C$DW$236, DW_AT_TI_call
    2759              
    2760 000002b9 7640!         LCR       #FS$$TOFD             ; [CPU_] |398| 
         000002ba 0000 
    2761                      ; call occurs [#FS$$TOFD] ; [] |398| 
    2762 000002bb 5DAD          MOVZ      AR5,SP                ; [CPU_] |398| 
    2763 000002bc 5CAD          MOVZ      AR4,SP                ; [CPU_] |398| 
    2764 000002bd DD8A          SUBB      XAR5,#10              ; [CPU_U] |398| 
    2765 000002be DC8E          SUBB      XAR4,#14              ; [CPU_U] |398| 
    2766 000002bf 88A5          MOVZ      AR6,AR5               ; [CPU_] |398| 
    2767 000002c0 5CA4          MOVZ      AR4,AR4               ; [CPU_] |398| 
    2768 000002c1 8F40+         MOVL      XAR5,#$C$FL1          ; [CPU_U] |398| 
         000002c2 0000 
    2769              $C$DW$237       .dwtag  DW_TAG_TI_branch
    2770                      .dwattr $C$DW$237, DW_AT_low_pc(0x00)
    2771                      .dwattr $C$DW$237, DW_AT_name("FD$$MPY")
    2772                      .dwattr $C$DW$237, DW_AT_TI_call
    2773              
    2774 000002c3 7640!         LCR       #FD$$MPY              ; [CPU_] |398| 
TMS320C2000 Assembler PC v15.12.3 Mon Mar 20 21:32:55 2017

Tools Copyright (c) 1996-2015 Texas Instruments Incorporated
C:\Users\Cameron\AppData\Local\Temp\0460811                          PAGE   56

         000002c4 0000 
    2775                      ; call occurs [#FD$$MPY] ; [] |398| 
    2776 000002c5 5CAD          MOVZ      AR4,SP                ; [CPU_] |398| 
    2777 000002c6 DC8A          SUBB      XAR4,#10              ; [CPU_U] |398| 
    2778 000002c7 5CA4          MOVZ      AR4,AR4               ; [CPU_] |398| 
    2779              $C$DW$238       .dwtag  DW_TAG_TI_branch
    2780                      .dwattr $C$DW$238, DW_AT_low_pc(0x00)
    2781                      .dwattr $C$DW$238, DW_AT_name("FD$$TOL")
    2782                      .dwattr $C$DW$238, DW_AT_TI_call
    2783              
    2784 000002c8 7640!         LCR       #FD$$TOL              ; [CPU_] |398| 
         000002c9 0000 
    2785                      ; call occurs [#FD$$TOL] ; [] |398| 
    2786 000002ca 761F-         MOVW      DP,#_gMotorVars+26    ; [CPU_U] 
         000002cb 0002 
    2787 000002cc 1E1A-         MOVL      @_gMotorVars+26,ACC   ; [CPU_] |398| 
    2788 000002cd       $C$L20:    
    2789 000002cd 761F-         MOVW      DP,#_ctrlHandle       ; [CPU_U] 
         000002ce 0000 
    2790                      .dwpsn  file "C:/ti/motorware/motorware_1_01_00_17/sw/solutions/instaspin_foc/src/proj_lab05b.c",line
    2791 000002cf 8D80-         MOVL      XAR2,#_gMotorVars     ; [CPU_U] |404| 
         000002d0 0080 
    2792 000002d1 D01A          MOVB      XAR0,#26              ; [CPU_] |404| 
    2793 000002d2 8A14-         MOVL      XAR4,@_ctrlHandle     ; [CPU_] |404| 
    2794 000002d3 0692          MOVL      ACC,*+XAR2[AR0]       ; [CPU_] |404| 
    2795              $C$DW$239       .dwtag  DW_TAG_TI_branch
    2796                      .dwattr $C$DW$239, DW_AT_low_pc(0x00)
    2797                      .dwattr $C$DW$239, DW_AT_name("_CTRL_setSpd_ref_krpm")
    2798                      .dwattr $C$DW$239, DW_AT_TI_call
    2799              
    2800 000002d4 7640!         LCR       #_CTRL_setSpd_ref_krpm ; [CPU_] |404| 
         000002d5 0000 
    2801                      ; call occurs [#_CTRL_setSpd_ref_krpm] ; [] |404| 
    2802 000002d6 761F-         MOVW      DP,#_ctrlHandle       ; [CPU_U] 
         000002d7 0000 
    2803                      .dwpsn  file "C:/ti/motorware/motorware_1_01_00_17/sw/solutions/instaspin_foc/src/proj_lab05b.c",line
    2804 000002d8 D01E          MOVB      XAR0,#30              ; [CPU_] |407| 
    2805 000002d9 8F40          MOVL      XAR5,#4198            ; [CPU_U] |407| 
         000002da 1066 
    2806 000002db A0AC          MOVL      XT,XAR5               ; [CPU_] |407| 
    2807 000002dc 8A14-         MOVL      XAR4,@_ctrlHandle     ; [CPU_] |407| 
    2808 000002dd 5605          IMPYL     P,XT,*+XAR2[AR0]      ; [CPU_] |407| 
         000002de 0092 
    2809 000002df 5663          QMPYL     ACC,XT,*+XAR2[AR0]    ; [CPU_] |407| 
         000002e0 0092 
    2810                      .dwpsn  file "C:/ti/motorware/motorware_1_01_00_17/sw/modules/ctrl/src/32b/ctrl.h",line 1560,column 3
    2811 000002e1 D076          MOVB      XAR0,#118             ; [CPU_] |1560| 
    2812                      .dwpsn  file "C:/ti/motorware/motorware_1_01_00_17/sw/solutions/instaspin_foc/src/proj_lab05b.c",line
    2813 000002e2 56A7          LSL64     ACC:P,#8              ; [CPU_] |407| 
    2814                      .dwpsn  file "C:/ti/motorware/motorware_1_01_00_17/sw/modules/ctrl/src/32b/ctrl.h",line 1560,column 3
    2815 000002e3 1E94          MOVL      *+XAR4[AR0],ACC       ; [CPU_] |1560| 
    2816                      .dwpsn  file "C:/ti/motorware/motorware_1_01_00_17/sw/solutions/instaspin_foc/src/proj_lab05b.c",line
    2817 000002e4 9203-         MOV       AL,@_Flag_Latch_softwareUpdate ; [CPU_] |408| 
    2818 000002e5 6124          B         $C$L22,EQ             ; [CPU_] |408| 
    2819                      ; branchcc occurs ; [] |408| 
TMS320C2000 Assembler PC v15.12.3 Mon Mar 20 21:32:55 2017

Tools Copyright (c) 1996-2015 Texas Instruments Incorporated
C:\Users\Cameron\AppData\Local\Temp\0460811                          PAGE   57

    2820                      .dwpsn  file "C:/ti/motorware/motorware_1_01_00_17/sw/solutions/instaspin_foc/src/proj_lab05b.c",line
    2821 000002e6 2B03-         MOV       @_Flag_Latch_softwareUpdate,#0 ; [CPU_] |410| 
    2822                      .dwpsn  file "C:/ti/motorware/motorware_1_01_00_17/sw/solutions/instaspin_foc/src/proj_lab05b.c",line
    2823              $C$DW$240       .dwtag  DW_TAG_TI_branch
    2824                      .dwattr $C$DW$240, DW_AT_low_pc(0x00)
    2825                      .dwattr $C$DW$240, DW_AT_name("_USER_calcPIgains")
    2826                      .dwattr $C$DW$240, DW_AT_TI_call
    2827              
    2828 000002e7 7640!         LCR       #_USER_calcPIgains    ; [CPU_] |412| 
         000002e8 0000 
    2829                      ; call occurs [#_USER_calcPIgains] ; [] |412| 
    2830 000002e9 761F-         MOVW      DP,#_ctrlHandle       ; [CPU_U] 
         000002ea 0000 
    2831                      .dwpsn  file "C:/ti/motorware/motorware_1_01_00_17/sw/solutions/instaspin_foc/src/proj_lab05b.c",line
    2832 000002eb 8A14-         MOVL      XAR4,@_ctrlHandle     ; [CPU_] |415| 
    2833 000002ec D0CA          MOVB      XAR0,#202             ; [CPU_] |415| 
    2834 000002ed 0694          MOVL      ACC,*+XAR4[AR0]       ; [CPU_] |415| 
    2835 000002ee D04A          MOVB      XAR0,#74              ; [CPU_] |415| 
    2836 000002ef 1E92          MOVL      *+XAR2[AR0],ACC       ; [CPU_] |415| 
    2837                      .dwpsn  file "C:/ti/motorware/motorware_1_01_00_17/sw/solutions/instaspin_foc/src/proj_lab05b.c",line
    2838 000002f0 D0D0          MOVB      XAR0,#208             ; [CPU_] |416| 
    2839 000002f1 0694          MOVL      ACC,*+XAR4[AR0]       ; [CPU_] |416| 
    2840 000002f2 D04C          MOVB      XAR0,#76              ; [CPU_] |416| 
    2841 000002f3 1E92          MOVL      *+XAR2[AR0],ACC       ; [CPU_] |416| 
    2842                      .dwpsn  file "C:/ti/motorware/motorware_1_01_00_17/sw/solutions/instaspin_foc/src/proj_lab05b.c",line
    2843 000002f4 D0D4          MOVB      XAR0,#212             ; [CPU_] |420| 
    2844 000002f5 0694          MOVL      ACC,*+XAR4[AR0]       ; [CPU_] |420| 
    2845 000002f6 D048          MOVB      XAR0,#72              ; [CPU_] |420| 
    2846 000002f7 1E92          MOVL      *+XAR2[AR0],ACC       ; [CPU_] |420| 
    2847                      .dwpsn  file "C:/ti/motorware/motorware_1_01_00_17/sw/solutions/instaspin_foc/src/proj_lab05b.c",line
    2848 000002f8 D046          MOVB      XAR0,#70              ; [CPU_] |425| 
    2849 000002f9 FF2F          MOV       ACC,#1536 << 15       ; [CPU_] |425| 
         000002fa 0600 
    2850 000002fb 1E92          MOVL      *+XAR2[AR0],ACC       ; [CPU_] |425| 
    2851 000002fc 6F0D          B         $C$L22,UNC            ; [CPU_] |425| 
    2852                      ; branch occurs ; [] |425| 
    2853 000002fd       $C$L21:    
    2854 000002fd 761F-         MOVW      DP,#_Flag_Latch_softwareUpdate ; [CPU_U] 
         000002fe 0000 
    2855                      .dwpsn  file "C:/ti/motorware/motorware_1_01_00_17/sw/solutions/instaspin_foc/src/proj_lab05b.c",line
    2856 000002ff D018          MOVB      XAR0,#24              ; [CPU_] |436| 
    2857                      .dwpsn  file "C:/ti/motorware/motorware_1_01_00_17/sw/solutions/instaspin_foc/src/proj_lab05b.c",line
    2858 00000300 56BF-         MOVB      @_Flag_Latch_softwareUpdate,#1,UNC ; [CPU_] |433| 
         00000301 0103 
    2859                      .dwpsn  file "C:/ti/motorware/motorware_1_01_00_17/sw/solutions/instaspin_foc/src/proj_lab05b.c",line
    2860 00000302 8A91          MOVL      XAR4,*+XAR1[AR0]      ; [CPU_] |436| 
    2861              $C$DW$241       .dwtag  DW_TAG_TI_branch
    2862                      .dwattr $C$DW$241, DW_AT_low_pc(0x00)
    2863                      .dwattr $C$DW$241, DW_AT_name("_EST_getMaxCurrentSlope_pu")
    2864                      .dwattr $C$DW$241, DW_AT_TI_call
    2865              
    2866 00000303 7640!         LCR       #_EST_getMaxCurrentSlope_pu ; [CPU_] |436| 
         00000304 0000 
    2867                      ; call occurs [#_EST_getMaxCurrentSlope_pu] ; [] |436| 
    2868 00000305 761F-         MOVW      DP,#_gMaxCurrentSlope ; [CPU_U] 
TMS320C2000 Assembler PC v15.12.3 Mon Mar 20 21:32:55 2017

Tools Copyright (c) 1996-2015 Texas Instruments Incorporated
C:\Users\Cameron\AppData\Local\Temp\0460811                          PAGE   58

         00000306 0000 
    2869 00000307 1E0A-         MOVL      @_gMaxCurrentSlope,ACC ; [CPU_] |436| 
    2870 00000308 8A14-         MOVL      XAR4,@_ctrlHandle     ; [CPU_] |436| 
    2871 00000309       $C$L22:    
    2872                      .dwpsn  file "C:/ti/motorware/motorware_1_01_00_17/sw/solutions/instaspin_foc/src/proj_lab05b.c",line
    2873 00000309 9201-         MOV       AL,@_gCounter_updateGlobals ; [CPU_] |441| 
    2874 0000030a 6107          B         $C$L23,EQ             ; [CPU_] |441| 
    2875                      ; branchcc occurs ; [] |441| 
    2876                      .dwpsn  file "C:/ti/motorware/motorware_1_01_00_17/sw/solutions/instaspin_foc/src/proj_lab05b.c",line
    2877 0000030b 2B01-         MOV       @_gCounter_updateGlobals,#0 ; [CPU_] |444| 
    2878                      .dwpsn  file "C:/ti/motorware/motorware_1_01_00_17/sw/solutions/instaspin_foc/src/proj_lab05b.c",line
    2879              $C$DW$242       .dwtag  DW_TAG_TI_branch
    2880                      .dwattr $C$DW$242, DW_AT_low_pc(0x00)
    2881                      .dwattr $C$DW$242, DW_AT_name("_updateGlobalVariables_motor")
    2882                      .dwattr $C$DW$242, DW_AT_TI_call
    2883              
    2884 0000030c 7640'         LCR       #_updateGlobalVariables_motor ; [CPU_] |446| 
         0000030d 0022 
    2885                      ; call occurs [#_updateGlobalVariables_motor] ; [] |446| 
    2886 0000030e 761F-         MOVW      DP,#_ctrlHandle       ; [CPU_U] 
         0000030f 0000 
    2887 00000310 8A14-         MOVL      XAR4,@_ctrlHandle     ; [CPU_] |446| 
    2888 00000311       $C$L23:    
    2889                      .dwpsn  file "C:/ti/motorware/motorware_1_01_00_17/sw/solutions/instaspin_foc/src/proj_lab05b.c",line
    2890              $C$DW$243       .dwtag  DW_TAG_TI_branch
    2891                      .dwattr $C$DW$243, DW_AT_low_pc(0x00)
    2892                      .dwattr $C$DW$243, DW_AT_name("_updateKpKiGains")
    2893                      .dwattr $C$DW$243, DW_AT_TI_call
    2894              
    2895 00000311 7640'         LCR       #_updateKpKiGains     ; [CPU_] |451| 
         00000312 0000 
    2896                      ; call occurs [#_updateKpKiGains] ; [] |451| 
    2897                      .dwpsn  file "C:/ti/motorware/motorware_1_01_00_17/sw/solutions/instaspin_foc/src/proj_lab05b.c",line
    2898 00000313 D018          MOVB      XAR0,#24              ; [CPU_] |454| 
    2899 00000314 8A91          MOVL      XAR4,*+XAR1[AR0]      ; [CPU_] |454| 
    2900 00000315 8D40-         MOVL      XAR1,#_gMotorVars     ; [CPU_U] |454| 
         00000316 0080 
    2901 00000317 92D9          MOV       AL,*+XAR1[3]          ; [CPU_] |454| 
    2902              $C$DW$244       .dwtag  DW_TAG_TI_branch
    2903                      .dwattr $C$DW$244, DW_AT_low_pc(0x00)
    2904                      .dwattr $C$DW$244, DW_AT_name("_EST_setFlag_enableForceAngle")
    2905                      .dwattr $C$DW$244, DW_AT_TI_call
    2906              
    2907 00000318 7640!         LCR       #_EST_setFlag_enableForceAngle ; [CPU_] |454| 
         00000319 0000 
    2908                      ; call occurs [#_EST_setFlag_enableForceAngle] ; [] |454| 
    2909                      .dwpsn  file "C:/ti/motorware/motorware_1_01_00_17/sw/solutions/instaspin_foc/src/proj_lab05b.c",line
    2910 0000031a D008          MOVB      XAR0,#8               ; [CPU_] |457| 
    2911 0000031b 761F-         MOVW      DP,#_ctrlHandle       ; [CPU_U] 
         0000031c 0000 
    2912                      .dwpsn  file "C:/ti/motorware/motorware_1_01_00_17/sw/modules/ctrl/src/32b/ctrl.h",line 1262,column 3
    2913 0000031d 02F2          MOVB      ACC,#242              ; [CPU_] |1262| 
    2914                      .dwpsn  file "C:/ti/motorware/motorware_1_01_00_17/sw/solutions/instaspin_foc/src/proj_lab05b.c",line
    2915 0000031e 8891          MOVZ      AR6,*+XAR1[AR0]       ; [CPU_] |457| 
    2916                      .dwpsn  file "C:/ti/motorware/motorware_1_01_00_17/sw/modules/ctrl/src/32b/ctrl.h",line 1262,column 3
TMS320C2000 Assembler PC v15.12.3 Mon Mar 20 21:32:55 2017

Tools Copyright (c) 1996-2015 Texas Instruments Incorporated
C:\Users\Cameron\AppData\Local\Temp\0460811                          PAGE   59

    2917 0000031f 0714-         ADDL      ACC,@_ctrlHandle      ; [CPU_] |1262| 
    2918 00000320 8AA9          MOVL      XAR4,ACC              ; [CPU_] |1262| 
    2919                      .dwpsn  file "C:/ti/motorware/motorware_1_01_00_17/sw/solutions/instaspin_foc/src/proj_lab05b.c",line
    2920 00000321 83A3          MOVL      XAR5,XAR3             ; [CPU_] |460| 
    2921                      .dwpsn  file "C:/ti/motorware/motorware_1_01_00_17/sw/modules/ctrl/src/32b/ctrl.h",line 1262,column 3
    2922 00000322 7EC4          MOV       *+XAR4[0],AR6         ; [CPU_] |1262| 
    2923                      .dwpsn  file "C:/ti/motorware/motorware_1_01_00_17/sw/solutions/instaspin_foc/src/proj_lab05b.c",line
    2924 00000323 8A0C-         MOVL      XAR4,@_halHandle      ; [CPU_] |460| 
    2925              $C$DW$245       .dwtag  DW_TAG_TI_branch
    2926                      .dwattr $C$DW$245, DW_AT_low_pc(0x00)
    2927                      .dwattr $C$DW$245, DW_AT_name("_HAL_writeDrvData")
    2928                      .dwattr $C$DW$245, DW_AT_TI_call
    2929              
    2930 00000324 7640!         LCR       #_HAL_writeDrvData    ; [CPU_] |460| 
         00000325 0000 
    2931                      ; call occurs [#_HAL_writeDrvData] ; [] |460| 
    2932 00000326 761F-         MOVW      DP,#_halHandle        ; [CPU_U] 
         00000327 0000 
    2933                      .dwpsn  file "C:/ti/motorware/motorware_1_01_00_17/sw/solutions/instaspin_foc/src/proj_lab05b.c",line
    2934 00000328 83A3          MOVL      XAR5,XAR3             ; [CPU_] |462| 
    2935 00000329 8A0C-         MOVL      XAR4,@_halHandle      ; [CPU_] |462| 
    2936              $C$DW$246       .dwtag  DW_TAG_TI_branch
    2937                      .dwattr $C$DW$246, DW_AT_low_pc(0x00)
    2938                      .dwattr $C$DW$246, DW_AT_name("_HAL_readDrvData")
    2939                      .dwattr $C$DW$246, DW_AT_TI_call
    2940              
    2941 0000032a 7640!         LCR       #_HAL_readDrvData     ; [CPU_] |462| 
         0000032b 0000 
    2942                      ; call occurs [#_HAL_readDrvData] ; [] |462| 
    2943 0000032c 761F-         MOVW      DP,#_ctrlHandle       ; [CPU_U] 
         0000032d 0000 
    2944 0000032e 8B14-         MOVL      XAR1,@_ctrlHandle     ; [CPU_] |462| 
    2945 0000032f       $C$L24:    
    2946                      .dwpsn  file "C:/ti/motorware/motorware_1_01_00_17/sw/solutions/instaspin_foc/src/proj_lab05b.c",line
    2947 0000032f 8D80-         MOVL      XAR2,#_gMotorVars     ; [CPU_U] |279| 
         00000330 0080 
    2948 00000331 92C2          MOV       AL,*+XAR2[0]          ; [CPU_] |279| 
    2949 00000332 FFE0          B         $C$L5,NEQ             ; [CPU_] |279| 
         00000333 FE1D 
    2950                      ; branchcc occurs ; [] |279| 
    2951                      .dwpsn  file "C:/ti/motorware/motorware_1_01_00_17/sw/modules/hal/boards/boostxldrv8301_revB/f28x/f28
    2952 00000334 830C-         MOVL      XAR5,@_halHandle      ; [CPU_] |246| 
    2953 00000335 8AA5          MOVL      XAR4,XAR5             ; [CPU_] |246| 
    2954 00000336 DC7E          ADDB      XAR4,#126             ; [CPU_] |246| 
    2955 00000337 7622   EALLOW
    2956                      .dwpsn  file "C:/ti/motorware/motorware_1_01_00_17/sw/drivers/pwm/src/32b/f28x/f2802x/pwm.h",line 156
    2957 00000338 D07C          MOVB      XAR0,#124             ; [CPU_] |1567| 
    2958 00000339 0218          MOVB      ACC,#24               ; [CPU_] |1567| 
    2959 0000033a 0795          ADDL      ACC,*+XAR5[AR0]       ; [CPU_] |1567| 
    2960 0000033b 83A9          MOVL      XAR5,ACC              ; [CPU_] |1567| 
    2961 0000033c 1AC5          OR        *+XAR5[0],#0x0004     ; [CPU_] |1567| 
         0000033d 0004 
    2962 0000033e 761A   EDIS
    2963 0000033f 7622   EALLOW
    2964 00000340 0218          MOVB      ACC,#24               ; [CPU_] |1567| 
TMS320C2000 Assembler PC v15.12.3 Mon Mar 20 21:32:55 2017

Tools Copyright (c) 1996-2015 Texas Instruments Incorporated
C:\Users\Cameron\AppData\Local\Temp\0460811                          PAGE   60

    2965 00000341 07C4          ADDL      ACC,*+XAR4[0]         ; [CPU_] |1567| 
    2966 00000342 83A9          MOVL      XAR5,ACC              ; [CPU_] |1567| 
    2967 00000343 1AC5          OR        *+XAR5[0],#0x0004     ; [CPU_] |1567| 
         00000344 0004 
    2968 00000345 761A   EDIS
    2969 00000346 7622   EALLOW
    2970 00000347 0218          MOVB      ACC,#24               ; [CPU_] |1567| 
    2971 00000348 07D4          ADDL      ACC,*+XAR4[2]         ; [CPU_] |1567| 
    2972 00000349 8AA9          MOVL      XAR4,ACC              ; [CPU_] |1567| 
    2973 0000034a 1AC4          OR        *+XAR4[0],#0x0004     ; [CPU_] |1567| 
         0000034b 0004 
    2974 0000034c 761A   EDIS
    2975 0000034d FF69          SPM       #0                    ; [CPU_] 
    2976                      .dwpsn  file "C:/ti/motorware/motorware_1_01_00_17/sw/solutions/instaspin_foc/src/proj_lab05b.c",line
    2977 0000034e 8AA1          MOVL      XAR4,XAR1             ; [CPU_] |476| 
    2978 0000034f 8354          MOVL      XAR5,*-SP[20]         ; [CPU_] |476| 
    2979              $C$DW$247       .dwtag  DW_TAG_TI_branch
    2980                      .dwattr $C$DW$247, DW_AT_low_pc(0x00)
    2981                      .dwattr $C$DW$247, DW_AT_name("_CTRL_setParams")
    2982                      .dwattr $C$DW$247, DW_AT_TI_call
    2983              
    2984 00000350 7640!         LCR       #_CTRL_setParams      ; [CPU_] |476| 
         00000351 0000 
    2985                      ; call occurs [#_CTRL_setParams] ; [] |476| 
    2986 00000352 761F-         MOVW      DP,#_gMotorVars+1     ; [CPU_U] 
         00000353 0002 
    2987                      .dwpsn  file "C:/ti/motorware/motorware_1_01_00_17/sw/solutions/instaspin_foc/src/proj_lab05b.c",line
    2988 00000354 2B01-         MOV       @_gMotorVars+1,#0     ; [CPU_] |477| 
    2989                      .dwpsn  file "C:/ti/motorware/motorware_1_01_00_17/sw/solutions/instaspin_foc/src/proj_lab05b.c",line
    2990 00000355 FFEF          B         $C$L4,UNC             ; [CPU_] |479| 
         00000356 FDEE 
    2991                      ; branch occurs ; [] |479| 
    2992 00000357       $C$L25:    
    2993 00000357 761F-         MOVW      DP,#_gMotorVars       ; [CPU_U] 
         00000358 0002 
    2994                      .dwpsn  file "C:/ti/motorware/motorware_1_01_00_17/sw/solutions/instaspin_foc/src/proj_lab05b.c",line
    2995 00000359 2B00-         MOV       @_gMotorVars,#0       ; [CPU_] |184| 
    2996                      .dwpsn  file "C:/ti/motorware/motorware_1_01_00_17/sw/solutions/instaspin_foc/src/proj_lab05b.c",line
    2997 0000035a 6FFD          B         $C$L25,UNC            ; [CPU_] |185| 
    2998                      ; branch occurs ; [] |185| 
    2999                      .dwattr $C$DW$184, DW_AT_TI_end_file("C:/ti/motorware/motorware_1_01_00_17/sw/solutions/instaspin_foc
    3000                      .dwattr $C$DW$184, DW_AT_TI_end_line(0x1e1)
    3001                      .dwattr $C$DW$184, DW_AT_TI_end_column(0x01)
    3002                      .dwendentry
    3003                      .dwendtag $C$DW$184
    3004              
    3005 00000000               .sect   ".text:retain"
    3006                      .retain
    3007                      .retainrefs
    3008                      .global _SCI_RX_ISR
    3009              
    3010              $C$DW$248       .dwtag  DW_TAG_subprogram
    3011                      .dwattr $C$DW$248, DW_AT_name("SCI_RX_ISR")
    3012                      .dwattr $C$DW$248, DW_AT_low_pc(_SCI_RX_ISR)
    3013                      .dwattr $C$DW$248, DW_AT_high_pc(0x00)
TMS320C2000 Assembler PC v15.12.3 Mon Mar 20 21:32:55 2017

Tools Copyright (c) 1996-2015 Texas Instruments Incorporated
C:\Users\Cameron\AppData\Local\Temp\0460811                          PAGE   61

    3014                      .dwattr $C$DW$248, DW_AT_TI_symbol_name("_SCI_RX_ISR")
    3015                      .dwattr $C$DW$248, DW_AT_external
    3016                      .dwattr $C$DW$248, DW_AT_TI_begin_file("C:/ti/motorware/motorware_1_01_00_17/sw/solutions/instaspin_f
    3017                      .dwattr $C$DW$248, DW_AT_TI_begin_line(0x20a)
    3018                      .dwattr $C$DW$248, DW_AT_TI_begin_column(0x10)
    3019                      .dwattr $C$DW$248, DW_AT_TI_interrupt
    3020                      .dwattr $C$DW$248, DW_AT_TI_max_frame_size(-14)
    3021                      .dwpsn  file "C:/ti/motorware/motorware_1_01_00_17/sw/solutions/instaspin_foc/src/proj_lab05b.c",line
    3022              
    3023                      .dwfde $C$DW$CIE, _SCI_RX_ISR
    3024              
    3025              ;***************************************************************
    3026              ;* FNAME: _SCI_RX_ISR                   FR SIZE:  12           *
    3027              ;*                                                             *
    3028              ;* FUNCTION ENVIRONMENT                                        *
    3029              ;*                                                             *
    3030              ;* FUNCTION PROPERTIES                                         *
    3031              ;*                            0 Parameter,  0 Auto, 12 SOE     *
    3032              ;***************************************************************
    3033              
    3034 00000000       _SCI_RX_ISR:
    3035                      .dwcfi  cfa_offset, -2
    3036                      .dwcfi  save_reg_to_mem, 26, 0
    3037 00000000 761B          ASP       ; [CPU_] 
    3038 00000001 0005          PUSH      AR1H:AR0H             ; [CPU_] 
    3039                      .dwcfi  save_reg_to_mem, 5, 2
    3040                      .dwcfi  save_reg_to_mem, 7, 3
    3041                      .dwcfi  cfa_offset, -4
    3042 00000002 FF69          SPM       0                     ; [CPU_] 
    3043 00000003 ABBD          MOVL      *SP++,XT              ; [CPU_] 
    3044                      .dwcfi  save_reg_to_mem, 21, 4
    3045                      .dwcfi  save_reg_to_mem, 22, 5
    3046                      .dwcfi  cfa_offset, -6
    3047 00000004 A8BD          MOVL      *SP++,XAR4            ; [CPU_] 
    3048                      .dwcfi  save_reg_to_mem, 12, 6
    3049                      .dwcfi  save_reg_to_mem, 13, 7
    3050                      .dwcfi  cfa_offset, -8
    3051 00000005 A0BD          MOVL      *SP++,XAR5            ; [CPU_] 
    3052                      .dwcfi  save_reg_to_mem, 14, 8
    3053                      .dwcfi  save_reg_to_mem, 15, 9
    3054                      .dwcfi  cfa_offset, -10
    3055 00000006 C2BD          MOVL      *SP++,XAR6            ; [CPU_] 
    3056                      .dwcfi  save_reg_to_mem, 16, 10
    3057                      .dwcfi  save_reg_to_mem, 17, 11
    3058                      .dwcfi  cfa_offset, -12
    3059 00000007 C3BD          MOVL      *SP++,XAR7            ; [CPU_] 
    3060                      .dwcfi  save_reg_to_mem, 18, 12
    3061                      .dwcfi  save_reg_to_mem, 19, 13
    3062                      .dwcfi  cfa_offset, -14
    3063 00000008 2942          CLRC      PAGE0,OVM             ; [CPU_] 
    3064 00000009 5616          CLRC      AMODE                 ; [CPU_] 
    3065 0000000a       $C$L26:    
    3066                      .dwpsn  file "C:/ti/motorware/motorware_1_01_00_17/sw/solutions/instaspin_foc/src/proj_lab05b.c",line
    3067 0000000a 02C2          MOVB      ACC,#194              ; [CPU_] |526| 
    3068 0000000b 761F-         MOVW      DP,#_halHandle        ; [CPU_U] 
TMS320C2000 Assembler PC v15.12.3 Mon Mar 20 21:32:55 2017

Tools Copyright (c) 1996-2015 Texas Instruments Incorporated
C:\Users\Cameron\AppData\Local\Temp\0460811                          PAGE   62

         0000000c 0000 
    3069 0000000d 070C-         ADDL      ACC,@_halHandle       ; [CPU_] |526| 
    3070 0000000e 8AA9          MOVL      XAR4,ACC              ; [CPU_] |526| 
    3071 0000000f 8AC4          MOVL      XAR4,*+XAR4[0]        ; [CPU_] |526| 
    3072              $C$DW$249       .dwtag  DW_TAG_TI_branch
    3073                      .dwattr $C$DW$249, DW_AT_low_pc(0x00)
    3074                      .dwattr $C$DW$249, DW_AT_name("_SCI_getRxFifoStatus")
    3075                      .dwattr $C$DW$249, DW_AT_TI_call
    3076              
    3077 00000010 7640!         LCR       #_SCI_getRxFifoStatus ; [CPU_] |526| 
         00000011 0000 
    3078                      ; call occurs [#_SCI_getRxFifoStatus] ; [] |526| 
    3079 00000012 5200          CMPB      AL,#0                 ; [CPU_] |526| 
    3080 00000013 60F7          B         $C$L26,NEQ            ; [CPU_] |526| 
    3081                      ; branchcc occurs ; [] |526| 
    3082                      .dwpsn  file "C:/ti/motorware/motorware_1_01_00_17/sw/solutions/instaspin_foc/src/proj_lab05b.c",line
    3083 00000014 02C2          MOVB      ACC,#194              ; [CPU_] |532| 
    3084 00000015 761F-         MOVW      DP,#_halHandle        ; [CPU_U] 
         00000016 0000 
    3085 00000017 070C-         ADDL      ACC,@_halHandle       ; [CPU_] |532| 
    3086 00000018 8AA9          MOVL      XAR4,ACC              ; [CPU_] |532| 
    3087 00000019 8AC4          MOVL      XAR4,*+XAR4[0]        ; [CPU_] |532| 
    3088              $C$DW$250       .dwtag  DW_TAG_TI_branch
    3089                      .dwattr $C$DW$250, DW_AT_low_pc(0x00)
    3090                      .dwattr $C$DW$250, DW_AT_name("_SCI_clearRxFifoOvf")
    3091                      .dwattr $C$DW$250, DW_AT_TI_call
    3092              
    3093 0000001a 7640!         LCR       #_SCI_clearRxFifoOvf  ; [CPU_] |532| 
         0000001b 0000 
    3094                      ; call occurs [#_SCI_clearRxFifoOvf] ; [] |532| 
    3095 0000001c 761F-         MOVW      DP,#_halHandle        ; [CPU_U] 
         0000001d 0000 
    3096                      .dwpsn  file "C:/ti/motorware/motorware_1_01_00_17/sw/solutions/instaspin_foc/src/proj_lab05b.c",line
    3097 0000001e 02C2          MOVB      ACC,#194              ; [CPU_] |533| 
    3098 0000001f 070C-         ADDL      ACC,@_halHandle       ; [CPU_] |533| 
    3099 00000020 8AA9          MOVL      XAR4,ACC              ; [CPU_] |533| 
    3100 00000021 8AC4          MOVL      XAR4,*+XAR4[0]        ; [CPU_] |533| 
    3101              $C$DW$251       .dwtag  DW_TAG_TI_branch
    3102                      .dwattr $C$DW$251, DW_AT_low_pc(0x00)
    3103                      .dwattr $C$DW$251, DW_AT_name("_SCI_clearRxFifoInt")
    3104                      .dwattr $C$DW$251, DW_AT_TI_call
    3105              
    3106 00000022 7640!         LCR       #_SCI_clearRxFifoInt  ; [CPU_] |533| 
         00000023 0000 
    3107                      ; call occurs [#_SCI_clearRxFifoInt] ; [] |533| 
    3108 00000024 761F-         MOVW      DP,#_halHandle        ; [CPU_U] 
         00000025 0000 
    3109                      .dwpsn  file "C:/ti/motorware/motorware_1_01_00_17/sw/drivers/pie/src/32b/f28x/f2802x/pie.h",line 756
    3110 00000026 0278          MOVB      ACC,#120              ; [CPU_] |756| 
    3111 00000027 070C-         ADDL      ACC,@_halHandle       ; [CPU_] |756| 
    3112 00000028 8AA9          MOVL      XAR4,ACC              ; [CPU_] |756| 
    3113 00000029 8AC4          MOVL      XAR4,*+XAR4[0]        ; [CPU_] |756| 
    3114 0000002a 28CC          MOV       *+XAR4[1],#256        ; [CPU_] |756| 
         0000002b 0100 
    3115 0000002c C5BE          MOVL      XAR7,*--SP            ; [CPU_] 
TMS320C2000 Assembler PC v15.12.3 Mon Mar 20 21:32:55 2017

Tools Copyright (c) 1996-2015 Texas Instruments Incorporated
C:\Users\Cameron\AppData\Local\Temp\0460811                          PAGE   63

    3116                      .dwcfi  cfa_offset, -12
    3117                      .dwcfi  restore_reg, 18
    3118 0000002d C4BE          MOVL      XAR6,*--SP            ; [CPU_] 
    3119                      .dwcfi  cfa_offset, -10
    3120                      .dwcfi  restore_reg, 16
    3121 0000002e 83BE          MOVL      XAR5,*--SP            ; [CPU_] 
    3122                      .dwcfi  cfa_offset, -8
    3123                      .dwcfi  restore_reg, 14
    3124 0000002f 8ABE          MOVL      XAR4,*--SP            ; [CPU_] 
    3125                      .dwcfi  cfa_offset, -6
    3126                      .dwcfi  restore_reg, 12
    3127 00000030 87BE          MOVL      XT,*--SP              ; [CPU_] 
    3128                      .dwcfi  cfa_offset, -4
    3129                      .dwcfi  restore_reg, 22
    3130                      .dwcfi  restore_reg, 21
    3131 00000031 0003          POP       AR1H:AR0H             ; [CPU_] 
    3132                      .dwcfi  cfa_offset, -2
    3133                      .dwcfi  restore_reg, 5
    3134                      .dwcfi  restore_reg, 7
    3135 00000032 7617          NASP      ; [CPU_] 
    3136              $C$DW$252       .dwtag  DW_TAG_TI_branch
    3137                      .dwattr $C$DW$252, DW_AT_low_pc(0x00)
    3138                      .dwattr $C$DW$252, DW_AT_TI_return
    3139              
    3140 00000033 7602          IRET      ; [CPU_] 
    3141                      ; return occurs ; [] 
    3142                      .dwattr $C$DW$248, DW_AT_TI_end_file("C:/ti/motorware/motorware_1_01_00_17/sw/solutions/instaspin_foc
    3143                      .dwattr $C$DW$248, DW_AT_TI_end_line(0x218)
    3144                      .dwattr $C$DW$248, DW_AT_TI_end_column(0x01)
    3145                      .dwendentry
    3146                      .dwendtag $C$DW$248
    3147              
    3148              ;***************************************************************
    3149              ;* FLOATING-POINT CONSTANTS                                    *
    3150              ;***************************************************************
    3151 00000000               .sect   ".econst"
    3152                      .align  2
    3153 00000000 0000  $C$FL1: .xldouble       $strtod("0x1p+24")
         00000001 0000 
         00000002 0000 
         00000003 4170 
    3154              ;**************************************************************
    3155              ;* UNDEFINED EXTERNAL REFERENCES                              *
    3156              ;**************************************************************
    3157                      .global _CTRL_setSpd_ref_krpm
    3158                      .global _CTRL_setup
    3159                      .global _CTRL_setParams
    3160                      .global _HAL_enableDebugInt
    3161                      .global _HAL_enableGlobalInts
    3162                      .global _HAL_enableAdcInts
    3163                      .global _CTRL_run
    3164                      .global _CTRL_getVersion
    3165                      .global _HAL_readDrvData
    3166                      .global _HAL_setupDrvSpi
    3167                      .global _HAL_writeDrvData
TMS320C2000 Assembler PC v15.12.3 Mon Mar 20 21:32:55 2017

Tools Copyright (c) 1996-2015 Texas Instruments Incorporated
C:\Users\Cameron\AppData\Local\Temp\0460811                          PAGE   64

    3168                      .global _HAL_setupFaults
    3169                      .global _HAL_enableDrv
    3170                      .global _HAL_setParams
    3171                      .global _SCI_clearRxFifoOvf
    3172                      .global _USER_setParams
