TMS320C2000 Assembler PC v15.12.3 Tue Nov 29 20:40:17 2016

Tools Copyright (c) 1996-2015 Texas Instruments Incorporated
C:\Users\Cameron\AppData\Local\Temp\0172010                          PAGE    1

       1              ;***************************************************************
       2              ;* TMS320C2000 C/C++ Codegen                   PC v15.12.3.LTS *
       3              ;* Date/Time created: Tue Nov 29 20:40:17 2016                 *
       4              ;***************************************************************
       5                      .compiler_opts --abi=coffabi --float_support=softlib --hll_source=on --mem_model:code=flat --mem_mode
       6        0002  FP      .set    XAR2
       7              
       8              $C$DW$CU        .dwtag  DW_TAG_compile_unit
       9                      .dwattr $C$DW$CU, DW_AT_name("C:/ti/motorware/motorware_1_01_00_17/sw/solutions/instaspin_foc/src/pro
      10                      .dwattr $C$DW$CU, DW_AT_producer("TI TMS320C2000 C/C++ Codegen PC v15.12.3.LTS Copyright (c) 1996-201
      11                      .dwattr $C$DW$CU, DW_AT_TI_version(0x01)
      12                      .dwattr $C$DW$CU, DW_AT_comp_dir("C:\ti\motorware\motorware_1_01_00_17\sw\solutions\instaspin_foc\boa
      13              ;**************************************************************
      14              ;* CINIT RECORDS                                              *
      15              ;**************************************************************
      16 00000000               .sect   ".cinit"
      17                      .align  1
      18 00000000 FFFF          .field          -1,16
      19 00000001 0000-         .field          _global_speed+0,32
         00000002 0000 
      20 00000003 0000          .bits   0,16                    ; _global_speed @ 0
      21              
      22 00000004               .sect   ".cinit"
      23                      .align  1
      24 00000004 FFFE          .field          -2,16
      25 00000005 0002-         .field          _gLEDcnt+0,32
         00000006 0000 
      26 00000007 0000          .bits   0,32                    ; _gLEDcnt @ 0
         00000008 0000 
      27              
      28 00000009               .sect   ".cinit"
      29                      .align  1
      30 00000009 FFFA          .field          -$C$IR_1,16
      31 0000000a 0006-         .field          _gPwmData+0,32
         0000000b 0000 
      32 0000000c 0000          .bits   0,32                    ; _gPwmData._Tabc._value[0] @ 0
         0000000d 0000 
      33 0000000e 0000          .bits   0,32                    ; _gPwmData._Tabc._value[1] @ 32
         0000000f 0000 
      34 00000010 0000          .bits   0,32                    ; _gPwmData._Tabc._value[2] @ 64
         00000011 0000 
      35        0006  $C$IR_1:        .set    6
      36              
      37 00000012               .sect   ".cinit"
      38                      .align  1
      39 00000012 FFF2          .field          -$C$IR_2,16
      40 00000013 000C-         .field          _gAdcData+0,32
         00000014 0000 
      41 00000015 0000          .bits   0,32                    ; _gAdcData._I._value[0] @ 0
         00000016 0000 
      42 00000017 0000          .bits   0,32                    ; _gAdcData._I._value[1] @ 32
         00000018 0000 
      43 00000019 0000          .bits   0,32                    ; _gAdcData._I._value[2] @ 64
         0000001a 0000 
      44 0000001b 0000          .bits   0,32                    ; _gAdcData._V._value[0] @ 96
TMS320C2000 Assembler PC v15.12.3 Tue Nov 29 20:40:17 2016

Tools Copyright (c) 1996-2015 Texas Instruments Incorporated
C:\Users\Cameron\AppData\Local\Temp\0172010                          PAGE    2

         0000001c 0000 
      45 0000001d 0000          .bits   0,32                    ; _gAdcData._V._value[1] @ 128
         0000001e 0000 
      46 0000001f 0000          .bits   0,32                    ; _gAdcData._V._value[2] @ 160
         00000020 0000 
      47 00000021 0000          .bits   0,32                    ; _gAdcData._dcBus @ 192
         00000022 0000 
      48        000E  $C$IR_2:        .set    14
      49              
      50 00000023               .sect   ".cinit"
      51                      .align  1
      52 00000023 FF88          .field          -$C$IR_3,16
      53 00000024 0040-         .field          _gMotorVars+0,32
         00000025 0000 
      54 00000026 0001          .bits   1,16                    ; _gMotorVars._Flag_enableSys @ 0
      55 00000027 0001          .bits   1,16                    ; _gMotorVars._Flag_Run_Identify @ 16
      56 00000028 0000          .bits   0,16                    ; _gMotorVars._Flag_MotorIdentified @ 32
      57 00000029 0001          .bits   1,16                    ; _gMotorVars._Flag_enableForceAngle @ 48
      58 0000002a 0000          .bits   0,16                    ; _gMotorVars._Flag_enableFieldWeakening @ 64
      59 0000002b 0000          .bits   0,16                    ; _gMotorVars._Flag_enableRsRecalc @ 80
      60 0000002c 0001          .bits   1,16                    ; _gMotorVars._Flag_enableUserParams @ 96
      61 0000002d 0001          .bits   1,16                    ; _gMotorVars._Flag_enableOffsetcalc @ 112
      62 0000002e 0000          .bits   0,16                    ; _gMotorVars._Flag_enablePowerWarp @ 128
      63 0000002f 0000          .bits   0,16                    ; _gMotorVars._Flag_enableSpeedCtrl @ 144
      64 00000030 0001          .bits   1,16                    ; _gMotorVars._Flag_enableRun @ 160
      65 00000031 0000          .bits   0,16                    ; _gMotorVars._Flag_RunState @ 176
      66 00000032 0000          .bits   0,16                    ; _gMotorVars._Flag_enableFlyingStart @ 192
      67 00000033 0001          .bits   1,16                    ; _gMotorVars._CtrlState @ 208
      68 00000034 0001          .bits   1,16                    ; _gMotorVars._EstState @ 224
      69 00000035 0000          .bits   0,16                    ; _gMotorVars._UserErrorCode @ 240
      70 00000036 0000          .bits   0,16                    ; _gMotorVars._CtrlVersion._rsvd @ 256
      71 00000037 0004          .bits   4,16                    ; _gMotorVars._CtrlVersion._targetProc @ 272
      72 00000038 0000          .bits   0,16                    ; _gMotorVars._CtrlVersion._major @ 288
      73 00000039 0000          .bits   0,16                    ; _gMotorVars._CtrlVersion._minor @ 304
      74 0000003a 0000          .bits   0,32                    ; _gMotorVars._IdRef_A @ 320
         0000003b 0000 
      75 0000003c 0000          .bits   0,32                    ; _gMotorVars._IqRef_A @ 352
         0000003d 0000 
      76 0000003e 0000          .bits   0,32                    ; _gMotorVars._SpeedRef_pu @ 384
         0000003f 0000 
      77 00000040 0000          .bits   0,32                    ; _gMotorVars._SpeedRef_krpm @ 416
         00000041 0000 
      78 00000042 0000          .bits   0,32                    ; _gMotorVars._SpeedTraj_krpm @ 448
         00000043 0000 
      79 00000044 0000          .bits   8388608,32                      ; _gMotorVars._MaxAccel_krpmps @ 480
         00000045 0080 
      80 00000046 0000          .bits   0,32                    ; _gMotorVars._Speed_krpm @ 512
         00000047 0000 
      81 00000048 0000          .bits   8388608,32                      ; _gMotorVars._OverModulation @ 544
         00000049 0080 
      82 0000004a 0000          .bits   50331648,32                     ; _gMotorVars._RsOnLineCurrent_A @ 576
         0000004b 0300 
      83 0000004c 0190          .bits   400,32                  ; _gMotorVars._SvgenMaxModulation_ticks @ 608
         0000004d 0000 
      84 0000004e 0000          .bits   0,32                    ; _gMotorVars._Flux_Wb @ 640
TMS320C2000 Assembler PC v15.12.3 Tue Nov 29 20:40:17 2016

Tools Copyright (c) 1996-2015 Texas Instruments Incorporated
C:\Users\Cameron\AppData\Local\Temp\0172010                          PAGE    3

         0000004f 0000 
      85 00000050 0000          .bits   0,32                    ; _gMotorVars._Torque_Nm @ 672
         00000051 0000 
      86 00000052 0000          .xfloat $strtod("0x0p+0")               ; _gMotorVars._MagnCurr_A @ 704
         00000053 0000 
      87 00000054 0000          .xfloat $strtod("0x0p+0")               ; _gMotorVars._Rr_Ohm @ 736
         00000055 0000 
      88 00000056 0000          .xfloat $strtod("0x0p+0")               ; _gMotorVars._Rs_Ohm @ 768
         00000057 0000 
      89 00000058 0000          .xfloat $strtod("0x0p+0")               ; _gMotorVars._RsOnLine_Ohm @ 800
         00000059 0000 
      90 0000005a 0000          .xfloat $strtod("0x0p+0")               ; _gMotorVars._Lsd_H @ 832
         0000005b 0000 
      91 0000005c 0000          .xfloat $strtod("0x0p+0")               ; _gMotorVars._Lsq_H @ 864
         0000005d 0000 
      92 0000005e 0000          .xfloat $strtod("0x0p+0")               ; _gMotorVars._Flux_VpHz @ 896
         0000005f 0000 
      93 00000060 0000          .xfloat $strtod("0x0p+0")               ; _gMotorVars._ipd_excFreq_Hz @ 928
         00000061 0000 
      94 00000062 0000          .bits   0,32                    ; _gMotorVars._ipd_Kspd @ 960
         00000063 0000 
      95 00000064 0000          .bits   0,32                    ; _gMotorVars._ipd_excMag_coarse_pu @ 992
         00000065 0000 
      96 00000066 0000          .bits   0,32                    ; _gMotorVars._ipd_excMag_fine_pu @ 1024
         00000067 0000 
      97 00000068 0000          .xfloat $strtod("0x0p+0")               ; _gMotorVars._ipd_waitTime_coarse_sec @ 1056
         00000069 0000 
      98 0000006a 0000          .xfloat $strtod("0x0p+0")               ; _gMotorVars._ipd_waitTime_fine_sec @ 1088
         0000006b 0000 
      99 0000006c 0000          .bits   0,32                    ; _gMotorVars._Kp_spd @ 1120
         0000006d 0000 
     100 0000006e 0000          .bits   0,32                    ; _gMotorVars._Ki_spd @ 1152
         0000006f 0000 
     101 00000070 0000          .bits   0,32                    ; _gMotorVars._Kp_Idq @ 1184
         00000071 0000 
     102 00000072 0000          .bits   0,32                    ; _gMotorVars._Ki_Idq @ 1216
         00000073 0000 
     103 00000074 0000          .bits   0,32                    ; _gMotorVars._Vd @ 1248
         00000075 0000 
     104 00000076 0000          .bits   0,32                    ; _gMotorVars._Vq @ 1280
         00000077 0000 
     105 00000078 0000          .bits   0,32                    ; _gMotorVars._Vs @ 1312
         00000079 0000 
     106 0000007a 6666          .bits   6710886,32                      ; _gMotorVars._VsRef @ 1344
         0000007b 0066 
     107 0000007c 0000          .bits   0,32                    ; _gMotorVars._VdcBus_kV @ 1376
         0000007d 0000 
     108 0000007e 0000          .bits   0,32                    ; _gMotorVars._Id_A @ 1408
         0000007f 0000 
     109 00000080 0000          .bits   0,32                    ; _gMotorVars._Iq_A @ 1440
         00000081 0000 
     110 00000082 0000          .bits   0,32                    ; _gMotorVars._Is_A @ 1472
         00000083 0000 
     111 00000084 0000          .bits   0,32                    ; _gMotorVars._I_bias._value[0] @ 1504
         00000085 0000 
TMS320C2000 Assembler PC v15.12.3 Tue Nov 29 20:40:17 2016

Tools Copyright (c) 1996-2015 Texas Instruments Incorporated
C:\Users\Cameron\AppData\Local\Temp\0172010                          PAGE    4

     112 00000086 0000          .bits   0,32                    ; _gMotorVars._I_bias._value[1] @ 1536
         00000087 0000 
     113 00000088 0000          .bits   0,32                    ; _gMotorVars._I_bias._value[2] @ 1568
         00000089 0000 
     114 0000008a 0000          .bits   0,32                    ; _gMotorVars._V_bias._value[0] @ 1600
         0000008b 0000 
     115 0000008c 0000          .bits   0,32                    ; _gMotorVars._V_bias._value[1] @ 1632
         0000008d 0000 
     116 0000008e 0000          .bits   0,32                    ; _gMotorVars._V_bias._value[2] @ 1664
         0000008f 0000 
     117 00000090 999A          .bits   10066330,32                     ; _gMotorVars._SpeedSet_krpm @ 1696
         00000091 0099 
     118 00000092 0000          .bits   0,32                    ; _gMotorVars._angle_sen_pu @ 1728
         00000093 0000 
     119 00000094 0000          .bits   0,32                    ; _gMotorVars._angle_est_pu @ 1760
         00000095 0000 
     120 00000096 0000          .bits   0,32                    ; _gMotorVars._speed_sen_pu @ 1792
         00000097 0000 
     121 00000098 0000          .bits   0,32                    ; _gMotorVars._speed_est_pu @ 1824
         00000099 0000 
     122 0000009a 0000          .bits   0,32                    ; _gMotorVars._speedHigh_hall2fast_pu @ 1856
         0000009b 0000 
     123 0000009c 0000          .bits   0,32                    ; _gMotorVars._speedLow_hall2fast_pu @ 1888
         0000009d 0000 
     124        0078  $C$IR_3:        .set    120
     125              
     126              
     127              $C$DW$1 .dwtag  DW_TAG_subprogram
     128                      .dwattr $C$DW$1, DW_AT_name("HAL_setupFaults")
     129                      .dwattr $C$DW$1, DW_AT_TI_symbol_name("_HAL_setupFaults")
     130                      .dwattr $C$DW$1, DW_AT_declaration
     131                      .dwattr $C$DW$1, DW_AT_external
     132              $C$DW$2 .dwtag  DW_TAG_formal_parameter
     133                      .dwattr $C$DW$2, DW_AT_type(*$C$DW$T$188)
     134              
     135                      .dwendtag $C$DW$1
     136              
     137              
     138              $C$DW$3 .dwtag  DW_TAG_subprogram
     139                      .dwattr $C$DW$3, DW_AT_name("HAL_enableDrv")
     140                      .dwattr $C$DW$3, DW_AT_TI_symbol_name("_HAL_enableDrv")
     141                      .dwattr $C$DW$3, DW_AT_declaration
     142                      .dwattr $C$DW$3, DW_AT_external
     143              $C$DW$4 .dwtag  DW_TAG_formal_parameter
     144                      .dwattr $C$DW$4, DW_AT_type(*$C$DW$T$188)
     145              
     146                      .dwendtag $C$DW$3
     147              
     148              
     149              $C$DW$5 .dwtag  DW_TAG_subprogram
     150                      .dwattr $C$DW$5, DW_AT_name("HAL_enableDebugInt")
     151                      .dwattr $C$DW$5, DW_AT_TI_symbol_name("_HAL_enableDebugInt")
     152                      .dwattr $C$DW$5, DW_AT_declaration
     153                      .dwattr $C$DW$5, DW_AT_external
     154              $C$DW$6 .dwtag  DW_TAG_formal_parameter
TMS320C2000 Assembler PC v15.12.3 Tue Nov 29 20:40:17 2016

Tools Copyright (c) 1996-2015 Texas Instruments Incorporated
C:\Users\Cameron\AppData\Local\Temp\0172010                          PAGE    5

     155                      .dwattr $C$DW$6, DW_AT_type(*$C$DW$T$188)
     156              
     157                      .dwendtag $C$DW$5
     158              
     159              
     160              $C$DW$7 .dwtag  DW_TAG_subprogram
     161                      .dwattr $C$DW$7, DW_AT_name("HAL_enableAdcInts")
     162                      .dwattr $C$DW$7, DW_AT_TI_symbol_name("_HAL_enableAdcInts")
     163                      .dwattr $C$DW$7, DW_AT_declaration
     164                      .dwattr $C$DW$7, DW_AT_external
     165              $C$DW$8 .dwtag  DW_TAG_formal_parameter
     166                      .dwattr $C$DW$8, DW_AT_type(*$C$DW$T$188)
     167              
     168                      .dwendtag $C$DW$7
     169              
     170              
     171              $C$DW$9 .dwtag  DW_TAG_subprogram
     172                      .dwattr $C$DW$9, DW_AT_name("HAL_enableGlobalInts")
     173                      .dwattr $C$DW$9, DW_AT_TI_symbol_name("_HAL_enableGlobalInts")
     174                      .dwattr $C$DW$9, DW_AT_declaration
     175                      .dwattr $C$DW$9, DW_AT_external
     176              $C$DW$10        .dwtag  DW_TAG_formal_parameter
     177                      .dwattr $C$DW$10, DW_AT_type(*$C$DW$T$188)
     178              
     179                      .dwendtag $C$DW$9
     180              
     181              
     182              $C$DW$11        .dwtag  DW_TAG_subprogram
     183                      .dwattr $C$DW$11, DW_AT_name("HAL_setupDrvSpi")
     184                      .dwattr $C$DW$11, DW_AT_TI_symbol_name("_HAL_setupDrvSpi")
     185                      .dwattr $C$DW$11, DW_AT_declaration
     186                      .dwattr $C$DW$11, DW_AT_external
     187              $C$DW$12        .dwtag  DW_TAG_formal_parameter
     188                      .dwattr $C$DW$12, DW_AT_type(*$C$DW$T$188)
     189              
     190              $C$DW$13        .dwtag  DW_TAG_formal_parameter
     191                      .dwattr $C$DW$13, DW_AT_type(*$C$DW$T$181)
     192              
     193                      .dwendtag $C$DW$11
     194              
     195              
     196              $C$DW$14        .dwtag  DW_TAG_subprogram
     197                      .dwattr $C$DW$14, DW_AT_name("HAL_setParams")
     198                      .dwattr $C$DW$14, DW_AT_TI_symbol_name("_HAL_setParams")
     199                      .dwattr $C$DW$14, DW_AT_declaration
     200                      .dwattr $C$DW$14, DW_AT_external
     201              $C$DW$15        .dwtag  DW_TAG_formal_parameter
     202                      .dwattr $C$DW$15, DW_AT_type(*$C$DW$T$188)
     203              
     204              $C$DW$16        .dwtag  DW_TAG_formal_parameter
     205                      .dwattr $C$DW$16, DW_AT_type(*$C$DW$T$204)
     206              
     207                      .dwendtag $C$DW$14
     208              
     209              
TMS320C2000 Assembler PC v15.12.3 Tue Nov 29 20:40:17 2016

Tools Copyright (c) 1996-2015 Texas Instruments Incorporated
C:\Users\Cameron\AppData\Local\Temp\0172010                          PAGE    6

     210              $C$DW$17        .dwtag  DW_TAG_subprogram
     211                      .dwattr $C$DW$17, DW_AT_name("HAL_setupLaunchPadGpio0and1")
     212                      .dwattr $C$DW$17, DW_AT_TI_symbol_name("_HAL_setupLaunchPadGpio0and1")
     213                      .dwattr $C$DW$17, DW_AT_declaration
     214                      .dwattr $C$DW$17, DW_AT_external
     215              $C$DW$18        .dwtag  DW_TAG_formal_parameter
     216                      .dwattr $C$DW$18, DW_AT_type(*$C$DW$T$188)
     217              
     218                      .dwendtag $C$DW$17
     219              
     220              
     221              $C$DW$19        .dwtag  DW_TAG_subprogram
     222                      .dwattr $C$DW$19, DW_AT_name("GPIO_toggle")
     223                      .dwattr $C$DW$19, DW_AT_TI_symbol_name("_GPIO_toggle")
     224                      .dwattr $C$DW$19, DW_AT_declaration
     225                      .dwattr $C$DW$19, DW_AT_external
     226              $C$DW$20        .dwtag  DW_TAG_formal_parameter
     227                      .dwattr $C$DW$20, DW_AT_type(*$C$DW$T$40)
     228              
     229              $C$DW$21        .dwtag  DW_TAG_formal_parameter
     230                      .dwattr $C$DW$21, DW_AT_type(*$C$DW$T$164)
     231              
     232                      .dwendtag $C$DW$19
     233              
     234              
     235              $C$DW$22        .dwtag  DW_TAG_subprogram
     236                      .dwattr $C$DW$22, DW_AT_name("memCopy")
     237                      .dwattr $C$DW$22, DW_AT_TI_symbol_name("_memCopy")
     238                      .dwattr $C$DW$22, DW_AT_declaration
     239                      .dwattr $C$DW$22, DW_AT_external
     240              $C$DW$23        .dwtag  DW_TAG_formal_parameter
     241                      .dwattr $C$DW$23, DW_AT_type(*$C$DW$T$207)
     242              
     243              $C$DW$24        .dwtag  DW_TAG_formal_parameter
     244                      .dwattr $C$DW$24, DW_AT_type(*$C$DW$T$207)
     245              
     246              $C$DW$25        .dwtag  DW_TAG_formal_parameter
     247                      .dwattr $C$DW$25, DW_AT_type(*$C$DW$T$207)
     248              
     249                      .dwendtag $C$DW$22
     250              
     251              
     252              $C$DW$26        .dwtag  DW_TAG_subprogram
     253                      .dwattr $C$DW$26, DW_AT_name("USER_setParams")
     254                      .dwattr $C$DW$26, DW_AT_TI_symbol_name("_USER_setParams")
     255                      .dwattr $C$DW$26, DW_AT_declaration
     256                      .dwattr $C$DW$26, DW_AT_external
     257              $C$DW$27        .dwtag  DW_TAG_formal_parameter
     258                      .dwattr $C$DW$27, DW_AT_type(*$C$DW$T$166)
     259              
     260                      .dwendtag $C$DW$26
     261              
     262              
     263              $C$DW$28        .dwtag  DW_TAG_subprogram
     264                      .dwattr $C$DW$28, DW_AT_name("USER_checkForErrors")
TMS320C2000 Assembler PC v15.12.3 Tue Nov 29 20:40:17 2016

Tools Copyright (c) 1996-2015 Texas Instruments Incorporated
C:\Users\Cameron\AppData\Local\Temp\0172010                          PAGE    7

     265                      .dwattr $C$DW$28, DW_AT_TI_symbol_name("_USER_checkForErrors")
     266                      .dwattr $C$DW$28, DW_AT_declaration
     267                      .dwattr $C$DW$28, DW_AT_external
     268              $C$DW$29        .dwtag  DW_TAG_formal_parameter
     269                      .dwattr $C$DW$29, DW_AT_type(*$C$DW$T$166)
     270              
     271                      .dwendtag $C$DW$28
     272              
     273                      .global _global_speed
     274 00000000       _global_speed:  .usect  ".ebss",1,1,0
     275              $C$DW$30        .dwtag  DW_TAG_variable
     276                      .dwattr $C$DW$30, DW_AT_name("global_speed")
     277                      .dwattr $C$DW$30, DW_AT_TI_symbol_name("_global_speed")
     278                      .dwattr $C$DW$30, DW_AT_location[DW_OP_addr _global_speed]
     279                      .dwattr $C$DW$30, DW_AT_type(*$C$DW$T$10)
     280                      .dwattr $C$DW$30, DW_AT_external
     281              
     282              
     283              $C$DW$31        .dwtag  DW_TAG_subprogram
     284                      .dwattr $C$DW$31, DW_AT_name("USER_getErrorCode")
     285                      .dwattr $C$DW$31, DW_AT_TI_symbol_name("_USER_getErrorCode")
     286                      .dwattr $C$DW$31, DW_AT_type(*$C$DW$T$127)
     287                      .dwattr $C$DW$31, DW_AT_declaration
     288                      .dwattr $C$DW$31, DW_AT_external
     289              $C$DW$32        .dwtag  DW_TAG_formal_parameter
     290                      .dwattr $C$DW$32, DW_AT_type(*$C$DW$T$166)
     291              
     292                      .dwendtag $C$DW$31
     293              
     294              $C$DW$33        .dwtag  DW_TAG_variable
     295                      .dwattr $C$DW$33, DW_AT_name("RamfuncsRunStart")
     296                      .dwattr $C$DW$33, DW_AT_TI_symbol_name("_RamfuncsRunStart")
     297                      .dwattr $C$DW$33, DW_AT_type(*$C$DW$T$207)
     298                      .dwattr $C$DW$33, DW_AT_declaration
     299                      .dwattr $C$DW$33, DW_AT_external
     300              
     301                      .global _gLEDcnt
     302 00000002       _gLEDcnt:       .usect  ".ebss",2,1,1
     303              $C$DW$34        .dwtag  DW_TAG_variable
     304                      .dwattr $C$DW$34, DW_AT_name("gLEDcnt")
     305                      .dwattr $C$DW$34, DW_AT_TI_symbol_name("_gLEDcnt")
     306                      .dwattr $C$DW$34, DW_AT_location[DW_OP_addr _gLEDcnt]
     307                      .dwattr $C$DW$34, DW_AT_type(*$C$DW$T$157)
     308                      .dwattr $C$DW$34, DW_AT_external
     309              
     310                      .global _halHandle
     311 00000004       _halHandle:     .usect  ".ebss",2,1,1
     312              $C$DW$35        .dwtag  DW_TAG_variable
     313                      .dwattr $C$DW$35, DW_AT_name("halHandle")
     314                      .dwattr $C$DW$35, DW_AT_TI_symbol_name("_halHandle")
     315                      .dwattr $C$DW$35, DW_AT_location[DW_OP_addr _halHandle]
     316                      .dwattr $C$DW$35, DW_AT_type(*$C$DW$T$188)
     317                      .dwattr $C$DW$35, DW_AT_external
     318              
     319              $C$DW$36        .dwtag  DW_TAG_variable
TMS320C2000 Assembler PC v15.12.3 Tue Nov 29 20:40:17 2016

Tools Copyright (c) 1996-2015 Texas Instruments Incorporated
C:\Users\Cameron\AppData\Local\Temp\0172010                          PAGE    8

     320                      .dwattr $C$DW$36, DW_AT_name("RamfuncsLoadEnd")
     321                      .dwattr $C$DW$36, DW_AT_TI_symbol_name("_RamfuncsLoadEnd")
     322                      .dwattr $C$DW$36, DW_AT_type(*$C$DW$T$207)
     323                      .dwattr $C$DW$36, DW_AT_declaration
     324                      .dwattr $C$DW$36, DW_AT_external
     325              
     326              $C$DW$37        .dwtag  DW_TAG_variable
     327                      .dwattr $C$DW$37, DW_AT_name("RamfuncsLoadStart")
     328                      .dwattr $C$DW$37, DW_AT_TI_symbol_name("_RamfuncsLoadStart")
     329                      .dwattr $C$DW$37, DW_AT_type(*$C$DW$T$207)
     330                      .dwattr $C$DW$37, DW_AT_declaration
     331                      .dwattr $C$DW$37, DW_AT_external
     332              
     333              
     334              $C$DW$38        .dwtag  DW_TAG_subprogram
     335                      .dwattr $C$DW$38, DW_AT_name("__IQsat")
     336                      .dwattr $C$DW$38, DW_AT_TI_symbol_name("___IQsat")
     337                      .dwattr $C$DW$38, DW_AT_type(*$C$DW$T$12)
     338                      .dwattr $C$DW$38, DW_AT_declaration
     339                      .dwattr $C$DW$38, DW_AT_external
     340              $C$DW$39        .dwtag  DW_TAG_formal_parameter
     341                      .dwattr $C$DW$39, DW_AT_type(*$C$DW$T$12)
     342              
     343              $C$DW$40        .dwtag  DW_TAG_formal_parameter
     344                      .dwattr $C$DW$40, DW_AT_type(*$C$DW$T$12)
     345              
     346              $C$DW$41        .dwtag  DW_TAG_formal_parameter
     347                      .dwattr $C$DW$41, DW_AT_type(*$C$DW$T$12)
     348              
     349                      .dwendtag $C$DW$38
     350              
     351              
     352              $C$DW$42        .dwtag  DW_TAG_subprogram
     353                      .dwattr $C$DW$42, DW_AT_name("HAL_init")
     354                      .dwattr $C$DW$42, DW_AT_TI_symbol_name("_HAL_init")
     355                      .dwattr $C$DW$42, DW_AT_type(*$C$DW$T$188)
     356                      .dwattr $C$DW$42, DW_AT_declaration
     357                      .dwattr $C$DW$42, DW_AT_external
     358              $C$DW$43        .dwtag  DW_TAG_formal_parameter
     359                      .dwattr $C$DW$43, DW_AT_type(*$C$DW$T$3)
     360              
     361              $C$DW$44        .dwtag  DW_TAG_formal_parameter
     362                      .dwattr $C$DW$44, DW_AT_type(*$C$DW$T$190)
     363              
     364                      .dwendtag $C$DW$42
     365              
     366              
     367              $C$DW$45        .dwtag  DW_TAG_subprogram
     368                      .dwattr $C$DW$45, DW_AT_name("__IQmpy")
     369                      .dwattr $C$DW$45, DW_AT_TI_symbol_name("___IQmpy")
     370                      .dwattr $C$DW$45, DW_AT_type(*$C$DW$T$12)
     371                      .dwattr $C$DW$45, DW_AT_declaration
     372                      .dwattr $C$DW$45, DW_AT_external
     373              $C$DW$46        .dwtag  DW_TAG_formal_parameter
     374                      .dwattr $C$DW$46, DW_AT_type(*$C$DW$T$12)
TMS320C2000 Assembler PC v15.12.3 Tue Nov 29 20:40:17 2016

Tools Copyright (c) 1996-2015 Texas Instruments Incorporated
C:\Users\Cameron\AppData\Local\Temp\0172010                          PAGE    9

     375              
     376              $C$DW$47        .dwtag  DW_TAG_formal_parameter
     377                      .dwattr $C$DW$47, DW_AT_type(*$C$DW$T$12)
     378              
     379              $C$DW$48        .dwtag  DW_TAG_formal_parameter
     380                      .dwattr $C$DW$48, DW_AT_type(*$C$DW$T$10)
     381              
     382                      .dwendtag $C$DW$45
     383              
     384                      .global _gPwmData
     385 00000006       _gPwmData:      .usect  ".ebss",6,1,1
     386              $C$DW$49        .dwtag  DW_TAG_variable
     387                      .dwattr $C$DW$49, DW_AT_name("gPwmData")
     388                      .dwattr $C$DW$49, DW_AT_TI_symbol_name("_gPwmData")
     389                      .dwattr $C$DW$49, DW_AT_location[DW_OP_addr _gPwmData]
     390                      .dwattr $C$DW$49, DW_AT_type(*$C$DW$T$194)
     391                      .dwattr $C$DW$49, DW_AT_external
     392              
     393                      .global _gAdcData
     394 0000000c       _gAdcData:      .usect  ".ebss",14,1,1
     395              $C$DW$50        .dwtag  DW_TAG_variable
     396                      .dwattr $C$DW$50, DW_AT_name("gAdcData")
     397                      .dwattr $C$DW$50, DW_AT_TI_symbol_name("_gAdcData")
     398                      .dwattr $C$DW$50, DW_AT_location[DW_OP_addr _gAdcData]
     399                      .dwattr $C$DW$50, DW_AT_type(*$C$DW$T$111)
     400                      .dwattr $C$DW$50, DW_AT_external
     401              
     402                      .global _gDrvSpi8301Vars
     403 0000001a       _gDrvSpi8301Vars:       .usect  ".ebss",24,1,0
     404              $C$DW$51        .dwtag  DW_TAG_variable
     405                      .dwattr $C$DW$51, DW_AT_name("gDrvSpi8301Vars")
     406                      .dwattr $C$DW$51, DW_AT_TI_symbol_name("_gDrvSpi8301Vars")
     407                      .dwattr $C$DW$51, DW_AT_location[DW_OP_addr _gDrvSpi8301Vars]
     408                      .dwattr $C$DW$51, DW_AT_type(*$C$DW$T$180)
     409                      .dwattr $C$DW$51, DW_AT_external
     410              
     411                      .global _gMotorVars
     412 00000040       _gMotorVars:    .usect  ".ebss",120,1,1
     413              $C$DW$52        .dwtag  DW_TAG_variable
     414                      .dwattr $C$DW$52, DW_AT_name("gMotorVars")
     415                      .dwattr $C$DW$52, DW_AT_TI_symbol_name("_gMotorVars")
     416                      .dwattr $C$DW$52, DW_AT_location[DW_OP_addr _gMotorVars]
     417                      .dwattr $C$DW$52, DW_AT_type(*$C$DW$T$198)
     418                      .dwattr $C$DW$52, DW_AT_external
     419              
     420                      .global _gUserParams
     421 000000c0       _gUserParams:   .usect  ".ebss",172,1,1
     422              $C$DW$53        .dwtag  DW_TAG_variable
     423                      .dwattr $C$DW$53, DW_AT_name("gUserParams")
     424                      .dwattr $C$DW$53, DW_AT_TI_symbol_name("_gUserParams")
     425                      .dwattr $C$DW$53, DW_AT_location[DW_OP_addr _gUserParams]
     426                      .dwattr $C$DW$53, DW_AT_type(*$C$DW$T$165)
     427                      .dwattr $C$DW$53, DW_AT_external
     428              
     429              $C$DW$54        .dwtag  DW_TAG_variable
TMS320C2000 Assembler PC v15.12.3 Tue Nov 29 20:40:17 2016

Tools Copyright (c) 1996-2015 Texas Instruments Incorporated
C:\Users\Cameron\AppData\Local\Temp\0172010                          PAGE   10

     430                      .dwattr $C$DW$54, DW_AT_name("hal")
     431                      .dwattr $C$DW$54, DW_AT_TI_symbol_name("_hal")
     432                      .dwattr $C$DW$54, DW_AT_type(*$C$DW$T$185)
     433                      .dwattr $C$DW$54, DW_AT_declaration
     434                      .dwattr $C$DW$54, DW_AT_external
     435              
     436              ;       C:\ti\ccsv6\tools\compiler\c2000_15.12.3.LTS\bin\opt2000.exe C:\\Users\\Cameron\\AppData\\Local\\Temp
     437              ;       C:\ti\ccsv6\tools\compiler\c2000_15.12.3.LTS\bin\ac2000.exe -@C:\\Users\\Cameron\\AppData\\Local\\Tem
     438 00000000               .sect   ".text:retain"
     439                      .retain
     440                      .retainrefs
     441                      .global _mainISR
     442              
     443              $C$DW$55        .dwtag  DW_TAG_subprogram
     444                      .dwattr $C$DW$55, DW_AT_name("mainISR")
     445                      .dwattr $C$DW$55, DW_AT_low_pc(_mainISR)
     446                      .dwattr $C$DW$55, DW_AT_high_pc(0x00)
     447                      .dwattr $C$DW$55, DW_AT_TI_symbol_name("_mainISR")
     448                      .dwattr $C$DW$55, DW_AT_external
     449                      .dwattr $C$DW$55, DW_AT_TI_begin_file("C:/ti/motorware/motorware_1_01_00_17/sw/solutions/instaspin_fo
     450                      .dwattr $C$DW$55, DW_AT_TI_begin_line(0xd7)
     451                      .dwattr $C$DW$55, DW_AT_TI_begin_column(0x10)
     452                      .dwattr $C$DW$55, DW_AT_TI_interrupt
     453                      .dwattr $C$DW$55, DW_AT_TI_max_frame_size(-14)
     454                      .dwpsn  file "C:/ti/motorware/motorware_1_01_00_17/sw/solutions/instaspin_foc/src/proj_lab01.c",line 
     455              
     456                      .dwfde $C$DW$CIE, _mainISR
     457              
     458              ;***************************************************************
     459              ;* FNAME: _mainISR                      FR SIZE:  12           *
     460              ;*                                                             *
     461              ;* FUNCTION ENVIRONMENT                                        *
     462              ;*                                                             *
     463              ;* FUNCTION PROPERTIES                                         *
     464              ;*                            0 Parameter,  0 Auto, 12 SOE     *
     465              ;***************************************************************
     466              
     467              _mainISR:
     468              ;* AR5   assigned to $O$C1
     469              ;* AR7   assigned to $O$C2
     470              ;* AR5   assigned to $O$C3
     471              ;* AR6   assigned to $O$C4
     472              ;* AR7   assigned to $O$C5
     473              ;* AR4   assigned to $O$v1
     474              ;* XT    assigned to _value
     475              $C$DW$56        .dwtag  DW_TAG_variable
     476                      .dwattr $C$DW$56, DW_AT_name("value")
     477                      .dwattr $C$DW$56, DW_AT_TI_symbol_name("_value")
     478                      .dwattr $C$DW$56, DW_AT_type(*$C$DW$T$72)
     479                      .dwattr $C$DW$56, DW_AT_location[DW_OP_reg21]
     480              
     481              ;* XT    assigned to _value
     482              $C$DW$57        .dwtag  DW_TAG_variable
     483                      .dwattr $C$DW$57, DW_AT_name("value")
     484                      .dwattr $C$DW$57, DW_AT_TI_symbol_name("_value")
TMS320C2000 Assembler PC v15.12.3 Tue Nov 29 20:40:17 2016

Tools Copyright (c) 1996-2015 Texas Instruments Incorporated
C:\Users\Cameron\AppData\Local\Temp\0172010                          PAGE   11

     485                      .dwattr $C$DW$57, DW_AT_type(*$C$DW$T$72)
     486                      .dwattr $C$DW$57, DW_AT_location[DW_OP_reg21]
     487              
     488              ;* XT    assigned to _value
     489              $C$DW$58        .dwtag  DW_TAG_variable
     490                      .dwattr $C$DW$58, DW_AT_name("value")
     491                      .dwattr $C$DW$58, DW_AT_TI_symbol_name("_value")
     492                      .dwattr $C$DW$58, DW_AT_type(*$C$DW$T$72)
     493                      .dwattr $C$DW$58, DW_AT_location[DW_OP_reg21]
     494              
     495              ;* XT    assigned to _value
     496              $C$DW$59        .dwtag  DW_TAG_variable
     497                      .dwattr $C$DW$59, DW_AT_name("value")
     498                      .dwattr $C$DW$59, DW_AT_TI_symbol_name("_value")
     499                      .dwattr $C$DW$59, DW_AT_type(*$C$DW$T$72)
     500                      .dwattr $C$DW$59, DW_AT_location[DW_OP_reg21]
     501              
     502              ;* XT    assigned to _value
     503              $C$DW$60        .dwtag  DW_TAG_variable
     504                      .dwattr $C$DW$60, DW_AT_name("value")
     505                      .dwattr $C$DW$60, DW_AT_TI_symbol_name("_value")
     506                      .dwattr $C$DW$60, DW_AT_type(*$C$DW$T$72)
     507                      .dwattr $C$DW$60, DW_AT_location[DW_OP_reg21]
     508              
     509              ;* XT    assigned to _value
     510              $C$DW$61        .dwtag  DW_TAG_variable
     511                      .dwattr $C$DW$61, DW_AT_name("value")
     512                      .dwattr $C$DW$61, DW_AT_TI_symbol_name("_value")
     513                      .dwattr $C$DW$61, DW_AT_type(*$C$DW$T$72)
     514                      .dwattr $C$DW$61, DW_AT_location[DW_OP_reg21]
     515              
     516              ;* XT    assigned to _value
     517              $C$DW$62        .dwtag  DW_TAG_variable
     518                      .dwattr $C$DW$62, DW_AT_name("value")
     519                      .dwattr $C$DW$62, DW_AT_TI_symbol_name("_value")
     520                      .dwattr $C$DW$62, DW_AT_type(*$C$DW$T$72)
     521                      .dwattr $C$DW$62, DW_AT_location[DW_OP_reg21]
     522              
     523              ;* AR0   assigned to _period
     524              $C$DW$63        .dwtag  DW_TAG_variable
     525                      .dwattr $C$DW$63, DW_AT_name("period")
     526                      .dwattr $C$DW$63, DW_AT_TI_symbol_name("_period")
     527                      .dwattr $C$DW$63, DW_AT_type(*$C$DW$T$72)
     528                      .dwattr $C$DW$63, DW_AT_location[DW_OP_reg4]
     529              
     530              ;* AR4   assigned to _obj
     531              $C$DW$64        .dwtag  DW_TAG_variable
     532                      .dwattr $C$DW$64, DW_AT_name("obj")
     533                      .dwattr $C$DW$64, DW_AT_TI_symbol_name("_obj")
     534                      .dwattr $C$DW$64, DW_AT_type(*$C$DW$T$186)
     535                      .dwattr $C$DW$64, DW_AT_location[DW_OP_reg12]
     536              
     537              ;* AR7   assigned to $O$U108
     538              ;* AR4   assigned to $O$U98
     539                      .dwcfi  cfa_offset, -2
TMS320C2000 Assembler PC v15.12.3 Tue Nov 29 20:40:17 2016

Tools Copyright (c) 1996-2015 Texas Instruments Incorporated
C:\Users\Cameron\AppData\Local\Temp\0172010                          PAGE   12

     540                      .dwcfi  save_reg_to_mem, 26, 0
     541 00000000 761B          ASP       ; [CPU_] 
     542 00000001 0005          PUSH      AR1H:AR0H             ; [CPU_] 
     543                      .dwcfi  save_reg_to_mem, 5, 2
     544                      .dwcfi  save_reg_to_mem, 7, 3
     545                      .dwcfi  cfa_offset, -4
     546 00000002 FF69          SPM       0                     ; [CPU_] 
     547 00000003 ABBD          MOVL      *SP++,XT              ; [CPU_] 
     548                      .dwcfi  save_reg_to_mem, 21, 4
     549                      .dwcfi  save_reg_to_mem, 22, 5
     550                      .dwcfi  cfa_offset, -6
     551 00000004 A8BD          MOVL      *SP++,XAR4            ; [CPU_] 
     552                      .dwcfi  save_reg_to_mem, 12, 6
     553                      .dwcfi  save_reg_to_mem, 13, 7
     554                      .dwcfi  cfa_offset, -8
     555 00000005 A0BD          MOVL      *SP++,XAR5            ; [CPU_] 
     556                      .dwcfi  save_reg_to_mem, 14, 8
     557                      .dwcfi  save_reg_to_mem, 15, 9
     558                      .dwcfi  cfa_offset, -10
     559 00000006 C2BD          MOVL      *SP++,XAR6            ; [CPU_] 
     560                      .dwcfi  save_reg_to_mem, 16, 10
     561                      .dwcfi  save_reg_to_mem, 17, 11
     562                      .dwcfi  cfa_offset, -12
     563 00000007 C3BD          MOVL      *SP++,XAR7            ; [CPU_] 
     564                      .dwcfi  save_reg_to_mem, 18, 12
     565                      .dwcfi  save_reg_to_mem, 19, 13
     566                      .dwcfi  cfa_offset, -14
     567 00000008 2942          CLRC      PAGE0,OVM             ; [CPU_] 
     568 00000009 5616          CLRC      AMODE                 ; [CPU_] 
     569                      .dwpsn  file "C:/ti/motorware/motorware_1_01_00_17/sw/solutions/instaspin_foc/src/proj_lab01.c",line 
     570 0000000a 0201          MOVB      ACC,#1                ; [CPU_] |219| 
     571 0000000b 761F-         MOVW      DP,#_gLEDcnt          ; [CPU_U] 
         0000000c 0000 
     572 0000000d 5601-         ADDL      @_gLEDcnt,ACC         ; [CPU_] |219| 
         0000000e 0002 
     573 0000000f 8F00          MOVL      XAR4,#2000            ; [CPU_U] |219| 
         00000010 07D0 
     574 00000011 0602-         MOVL      ACC,@_gLEDcnt         ; [CPU_] |219| 
     575 00000012 1901          SUBB      ACC,#1                ; [CPU_] |219| 
     576 00000013 0FA4          CMPL      ACC,XAR4              ; [CPU_] |219| 
     577 00000014 690C          B         $C$L1,LOS             ; [CPU_] |219| 
     578                      ; branchcc occurs ; [] |219| 
     579                      .dwpsn  file "C:/ti/motorware/motorware_1_01_00_17/sw/modules/hal/boards/boostxldrv8301_revB/f28x/f28
     580 00000015 0208          MOVB      ACC,#8                ; [CPU_] |756| 
     581 00000016 0704-         ADDL      ACC,@_halHandle       ; [CPU_] |756| 
     582 00000017 8AA9          MOVL      XAR4,ACC              ; [CPU_] |756| 
     583 00000018 9A00          MOVB      AL,#0                 ; [CPU_] |756| 
     584 00000019 8AC4          MOVL      XAR4,*+XAR4[0]        ; [CPU_] |756| 
     585              $C$DW$65        .dwtag  DW_TAG_TI_branch
     586                      .dwattr $C$DW$65, DW_AT_low_pc(0x00)
     587                      .dwattr $C$DW$65, DW_AT_name("_GPIO_toggle")
     588                      .dwattr $C$DW$65, DW_AT_TI_call
     589              
     590 0000001a 7640!         LCR       #_GPIO_toggle         ; [CPU_] |756| 
         0000001b 0000 
TMS320C2000 Assembler PC v15.12.3 Tue Nov 29 20:40:17 2016

Tools Copyright (c) 1996-2015 Texas Instruments Incorporated
C:\Users\Cameron\AppData\Local\Temp\0172010                          PAGE   13

     591                      ; call occurs [#_GPIO_toggle] ; [] |756| 
     592 0000001c 761F-         MOVW      DP,#_gLEDcnt          ; [CPU_U] 
         0000001d 0000 
     593                      .dwpsn  file "C:/ti/motorware/motorware_1_01_00_17/sw/solutions/instaspin_foc/src/proj_lab01.c",line 
     594 0000001e 0200          MOVB      ACC,#0                ; [CPU_] |222| 
     595 0000001f 1E02-         MOVL      @_gLEDcnt,ACC         ; [CPU_] |222| 
     596 00000020       $C$L1:    
     597                      .dwpsn  file "C:/ti/motorware/motorware_1_01_00_17/sw/solutions/instaspin_foc/src/proj_lab01.c",line 
     598 00000020 8A04-         MOVL      XAR4,@_halHandle      ; [CPU_] |227| 
     599                      .dwpsn  file "C:/ti/motorware/motorware_1_01_00_17/sw/drivers/adc/src/32b/f28x/f2802x/adc.h",line 571
     600 00000021 8F40          MOVL      XAR5,#26117           ; [CPU_U] |571| 
         00000022 6605 
     601 00000023 A0A9          MOVL      ACC,XAR5              ; [CPU_] |571| 
     602 00000024 07C4          ADDL      ACC,*+XAR4[0]         ; [CPU_] |571| 
     603 00000025 83A9          MOVL      XAR5,ACC              ; [CPU_] |571| 
     604                      .dwpsn  file "C:/ti/motorware/motorware_1_01_00_17/sw/drivers/pie/src/32b/f28x/f2802x/pie.h",line 756
     605 00000026 D078          MOVB      XAR0,#120             ; [CPU_] |756| 
     606                      .dwpsn  file "C:/ti/motorware/motorware_1_01_00_17/sw/drivers/adc/src/32b/f28x/f2802x/adc.h",line 571
     607 00000027 56BF          MOVB      *+XAR5[0],#1,UNC      ; [CPU_] |571| 
         00000028 01C5 
     608                      .dwpsn  file "C:/ti/motorware/motorware_1_01_00_17/sw/drivers/pie/src/32b/f28x/f2802x/pie.h",line 756
     609 00000029 8394          MOVL      XAR5,*+XAR4[AR0]      ; [CPU_] |756| 
     610                      .dwpsn  file "C:/ti/motorware/motorware_1_01_00_17/sw/modules/hal/boards/boostxldrv8301_revB/f28x/f28
     611 0000002a D0A0          MOVB      XAR0,#160             ; [CPU_] |504| 
     612                      .dwpsn  file "C:/ti/motorware/motorware_1_01_00_17/sw/drivers/pie/src/32b/f28x/f2802x/pie.h",line 756
     613 0000002b 28CD          MOV       *+XAR5[1],#512        ; [CPU_] |756| 
         0000002c 0200 
     614                      .dwpsn  file "C:/ti/motorware/motorware_1_01_00_17/sw/drivers/adc/src/32b/f28x/f2802x/adc.h",line 684
     615 0000002d 83C4          MOVL      XAR5,*+XAR4[0]        ; [CPU_] |684| 
     616                      .dwpsn  file "C:/ti/motorware/motorware_1_01_00_17/sw/modules/hal/boards/boostxldrv8301_revB/f28x/f28
     617 0000002e C594          MOVL      XAR7,*+XAR4[AR0]      ; [CPU_] |504| 
     618                      .dwpsn  file "C:/ti/motorware/motorware_1_01_00_17/sw/modules/hal/boards/boostxldrv8301_revB/f28x/f28
     619 0000002f 7680-         MOVL      XAR6,#_gAdcData       ; [CPU_U] |505| 
         00000030 000C 
     620                      .dwpsn  file "C:/ti/motorware/motorware_1_01_00_17/sw/modules/hal/boards/boostxldrv8301_revB/f28x/f28
     621 00000031 D092          MOVB      XAR0,#146             ; [CPU_] |504| 
     622                      .dwpsn  file "C:/ti/motorware/motorware_1_01_00_17/sw/drivers/adc/src/32b/f28x/f2802x/adc.h",line 684
     623 00000032 0ECD          MOVU      ACC,*+XAR5[1]         ; [CPU_] |684| 
     624 00000033 1EAC          MOVL      XT,ACC                ; [CPU_] |684| 
     625                      .dwpsn  file "C:/ti/motorware/motorware_1_01_00_17/sw/modules/hal/boards/boostxldrv8301_revB/f28x/f28
     626 00000034 5605          IMPYL     P,XT,XAR7             ; [CPU_] |504| 
         00000035 00A7 
     627 00000036 5663          QMPYL     ACC,XT,XAR7           ; [CPU_] |504| 
         00000037 00A7 
     628 00000038 568B          ASR64     ACC:P,#12             ; [CPU_] |504| 
     629 00000039 A9A9          MOVL      ACC,P                 ; [CPU_] |504| 
     630 0000003a 0394          SUBL      ACC,*+XAR4[AR0]       ; [CPU_] |504| 
     631                      .dwpsn  file "C:/ti/motorware/motorware_1_01_00_17/sw/modules/hal/boards/boostxldrv8301_revB/f28x/f28
     632 0000003b D094          MOVB      XAR0,#148             ; [CPU_] |509| 
     633                      .dwpsn  file "C:/ti/motorware/motorware_1_01_00_17/sw/modules/hal/boards/boostxldrv8301_revB/f28x/f28
     634 0000003c 1EC6          MOVL      *+XAR6[0],ACC         ; [CPU_] |505| 
     635                      .dwpsn  file "C:/ti/motorware/motorware_1_01_00_17/sw/drivers/adc/src/32b/f28x/f2802x/adc.h",line 684
     636 0000003d 0ED5          MOVU      ACC,*+XAR5[2]         ; [CPU_] |684| 
     637 0000003e 1EAC          MOVL      XT,ACC                ; [CPU_] |684| 
     638                      .dwpsn  file "C:/ti/motorware/motorware_1_01_00_17/sw/modules/hal/boards/boostxldrv8301_revB/f28x/f28
TMS320C2000 Assembler PC v15.12.3 Tue Nov 29 20:40:17 2016

Tools Copyright (c) 1996-2015 Texas Instruments Incorporated
C:\Users\Cameron\AppData\Local\Temp\0172010                          PAGE   14

     639 0000003f 5605          IMPYL     P,XT,XAR7             ; [CPU_] |509| 
         00000040 00A7 
     640 00000041 5663          QMPYL     ACC,XT,XAR7           ; [CPU_] |509| 
         00000042 00A7 
     641 00000043 568B          ASR64     ACC:P,#12             ; [CPU_] |509| 
     642 00000044 A9A9          MOVL      ACC,P                 ; [CPU_] |509| 
     643 00000045 0394          SUBL      ACC,*+XAR4[AR0]       ; [CPU_] |509| 
     644                      .dwpsn  file "C:/ti/motorware/motorware_1_01_00_17/sw/modules/hal/boards/boostxldrv8301_revB/f28x/f28
     645 00000046 D096          MOVB      XAR0,#150             ; [CPU_] |514| 
     646                      .dwpsn  file "C:/ti/motorware/motorware_1_01_00_17/sw/modules/hal/boards/boostxldrv8301_revB/f28x/f28
     647 00000047 1ED6          MOVL      *+XAR6[2],ACC         ; [CPU_] |510| 
     648                      .dwpsn  file "C:/ti/motorware/motorware_1_01_00_17/sw/drivers/adc/src/32b/f28x/f2802x/adc.h",line 684
     649 00000048 0EDD          MOVU      ACC,*+XAR5[3]         ; [CPU_] |684| 
     650 00000049 1EAC          MOVL      XT,ACC                ; [CPU_] |684| 
     651                      .dwpsn  file "C:/ti/motorware/motorware_1_01_00_17/sw/modules/hal/boards/boostxldrv8301_revB/f28x/f28
     652 0000004a 5605          IMPYL     P,XT,XAR7             ; [CPU_] |514| 
         0000004b 00A7 
     653 0000004c 5663          QMPYL     ACC,XT,XAR7           ; [CPU_] |514| 
         0000004d 00A7 
     654 0000004e 568B          ASR64     ACC:P,#12             ; [CPU_] |514| 
     655 0000004f A9A9          MOVL      ACC,P                 ; [CPU_] |514| 
     656 00000050 0394          SUBL      ACC,*+XAR4[AR0]       ; [CPU_] |514| 
     657                      .dwpsn  file "C:/ti/motorware/motorware_1_01_00_17/sw/modules/hal/boards/boostxldrv8301_revB/f28x/f28
     658 00000051 D0A2          MOVB      XAR0,#162             ; [CPU_] |519| 
     659                      .dwpsn  file "C:/ti/motorware/motorware_1_01_00_17/sw/modules/hal/boards/boostxldrv8301_revB/f28x/f28
     660 00000052 1EE6          MOVL      *+XAR6[4],ACC         ; [CPU_] |515| 
     661                      .dwpsn  file "C:/ti/motorware/motorware_1_01_00_17/sw/drivers/adc/src/32b/f28x/f2802x/adc.h",line 684
     662 00000053 0EE5          MOVU      ACC,*+XAR5[4]         ; [CPU_] |684| 
     663                      .dwpsn  file "C:/ti/motorware/motorware_1_01_00_17/sw/modules/hal/boards/boostxldrv8301_revB/f28x/f28
     664 00000054 C594          MOVL      XAR7,*+XAR4[AR0]      ; [CPU_] |519| 
     665 00000055 3B01          SETC      SXM                   ; [CPU_] 
     666                      .dwpsn  file "C:/ti/motorware/motorware_1_01_00_17/sw/drivers/adc/src/32b/f28x/f2802x/adc.h",line 684
     667 00000056 1EAC          MOVL      XT,ACC                ; [CPU_] |684| 
     668                      .dwpsn  file "C:/ti/motorware/motorware_1_01_00_17/sw/modules/hal/boards/boostxldrv8301_revB/f28x/f28
     669 00000057 D098          MOVB      XAR0,#152             ; [CPU_] |519| 
     670 00000058 5605          IMPYL     P,XT,XAR7             ; [CPU_] |519| 
         00000059 00A7 
     671 0000005a 5663          QMPYL     ACC,XT,XAR7           ; [CPU_] |519| 
         0000005b 00A7 
     672 0000005c 568B          ASR64     ACC:P,#12             ; [CPU_] |519| 
     673 0000005d A9A9          MOVL      ACC,P                 ; [CPU_] |519| 
     674 0000005e 0394          SUBL      ACC,*+XAR4[AR0]       ; [CPU_] |519| 
     675                      .dwpsn  file "C:/ti/motorware/motorware_1_01_00_17/sw/modules/hal/boards/boostxldrv8301_revB/f28x/f28
     676 0000005f D09A          MOVB      XAR0,#154             ; [CPU_] |524| 
     677                      .dwpsn  file "C:/ti/motorware/motorware_1_01_00_17/sw/modules/hal/boards/boostxldrv8301_revB/f28x/f28
     678 00000060 1EF6          MOVL      *+XAR6[6],ACC         ; [CPU_] |520| 
     679                      .dwpsn  file "C:/ti/motorware/motorware_1_01_00_17/sw/drivers/adc/src/32b/f28x/f2802x/adc.h",line 684
     680 00000061 0EED          MOVU      ACC,*+XAR5[5]         ; [CPU_] |684| 
     681 00000062 1EAC          MOVL      XT,ACC                ; [CPU_] |684| 
     682                      .dwpsn  file "C:/ti/motorware/motorware_1_01_00_17/sw/modules/hal/boards/boostxldrv8301_revB/f28x/f28
     683 00000063 5605          IMPYL     P,XT,XAR7             ; [CPU_] |524| 
         00000064 00A7 
     684 00000065 5663          QMPYL     ACC,XT,XAR7           ; [CPU_] |524| 
         00000066 00A7 
     685 00000067 568B          ASR64     ACC:P,#12             ; [CPU_] |524| 
TMS320C2000 Assembler PC v15.12.3 Tue Nov 29 20:40:17 2016

Tools Copyright (c) 1996-2015 Texas Instruments Incorporated
C:\Users\Cameron\AppData\Local\Temp\0172010                          PAGE   15

     686 00000068 A9A9          MOVL      ACC,P                 ; [CPU_] |524| 
     687 00000069 0394          SUBL      ACC,*+XAR4[AR0]       ; [CPU_] |524| 
     688                      .dwpsn  file "C:/ti/motorware/motorware_1_01_00_17/sw/modules/hal/boards/boostxldrv8301_revB/f28x/f28
     689 0000006a D008          MOVB      XAR0,#8               ; [CPU_] |525| 
     690 0000006b 1E96          MOVL      *+XAR6[AR0],ACC       ; [CPU_] |525| 
     691                      .dwpsn  file "C:/ti/motorware/motorware_1_01_00_17/sw/modules/hal/boards/boostxldrv8301_revB/f28x/f28
     692 0000006c D09C          MOVB      XAR0,#156             ; [CPU_] |529| 
     693                      .dwpsn  file "C:/ti/motorware/motorware_1_01_00_17/sw/drivers/adc/src/32b/f28x/f2802x/adc.h",line 684
     694 0000006d 0EF5          MOVU      ACC,*+XAR5[6]         ; [CPU_] |684| 
     695 0000006e 1EAC          MOVL      XT,ACC                ; [CPU_] |684| 
     696                      .dwpsn  file "C:/ti/motorware/motorware_1_01_00_17/sw/modules/hal/boards/boostxldrv8301_revB/f28x/f28
     697 0000006f 5605          IMPYL     P,XT,XAR7             ; [CPU_] |529| 
         00000070 00A7 
     698 00000071 5663          QMPYL     ACC,XT,XAR7           ; [CPU_] |529| 
         00000072 00A7 
     699 00000073 568B          ASR64     ACC:P,#12             ; [CPU_] |529| 
     700 00000074 A9A9          MOVL      ACC,P                 ; [CPU_] |529| 
     701 00000075 0394          SUBL      ACC,*+XAR4[AR0]       ; [CPU_] |529| 
     702                      .dwpsn  file "C:/ti/motorware/motorware_1_01_00_17/sw/modules/hal/boards/boostxldrv8301_revB/f28x/f28
     703 00000076 D00A          MOVB      XAR0,#10              ; [CPU_] |530| 
     704 00000077 1E96          MOVL      *+XAR6[AR0],ACC       ; [CPU_] |530| 
     705 00000078 DC7C          ADDB      XAR4,#124             ; [CPU_] 
     706 00000079 BE02          MOVB      XAR6,#2               ; [CPU_] 
     707                      .dwpsn  file "C:/ti/motorware/motorware_1_01_00_17/sw/drivers/adc/src/32b/f28x/f2802x/adc.h",line 684
     708 0000007a 0EFD          MOVU      ACC,*+XAR5[7]         ; [CPU_] |684| 
     709 0000007b 1EAC          MOVL      XT,ACC                ; [CPU_] |684| 
     710                      .dwpsn  file "C:/ti/motorware/motorware_1_01_00_17/sw/modules/hal/boards/boostxldrv8301_revB/f28x/f28
     711 0000007c 5605          IMPYL     P,XT,XAR7             ; [CPU_] |534| 
         0000007d 00A7 
     712 0000007e 5663          QMPYL     ACC,XT,XAR7           ; [CPU_] |534| 
         0000007f 00A7 
     713 00000080 568B          ASR64     ACC:P,#12             ; [CPU_] |534| 
     714 00000081 76C0-         MOVL      XAR7,#_gPwmData       ; [CPU_U] 
         00000082 0006 
     715                      .dwpsn  file "C:/ti/motorware/motorware_1_01_00_17/sw/modules/hal/boards/boostxldrv8301_revB/f28x/f28
     716 00000083 A918-         MOVL      @_gAdcData+12,P       ; [CPU_] |535| 
     717 00000084       $C$L2:    
     718                      .dwpsn  file "C:/ti/motorware/motorware_1_01_00_17/sw/modules/hal/boards/boostxldrv8301_revB/f28x/f28
     719 00000084 8384          MOVL      XAR5,*XAR4++          ; [CPU_] |1080| 
     720                      .dwpsn  file "C:/ti/motorware/motorware_1_01_00_17/sw/drivers/pwm/src/32b/f28x/f2802x/pwm.h",line 171
     721 00000085 FF2F          MOV       ACC,#-512 << 15       ; [CPU_] |1717| 
         00000086 FE00 
     722 00000087 8787          MOVL      XT,*XAR7++            ; [CPU_] |1717| 
     723 00000088 5605          IMPYL     P,XT,ACC              ; [CPU_] |1717| 
         00000089 00A9 
     724                      .dwpsn  file "C:/ti/motorware/motorware_1_01_00_17/sw/modules/hal/boards/boostxldrv8301_revB/f28x/f28
     725 0000008a 58ED          MOVZ      AR0,*+XAR5[5]         ; [CPU_] |1080| 
     726                      .dwpsn  file "C:/ti/motorware/motorware_1_01_00_17/sw/drivers/pwm/src/32b/f28x/f2802x/pwm.h",line 171
     727 0000008b 5663          QMPYL     ACC,XT,ACC            ; [CPU_] |1717| 
         0000008c 00A9 
     728 0000008d 56A7          LSL64     ACC:P,#8              ; [CPU_] |1717| 
     729 0000008e 2BAB          MOV       PL,#0                 ; [CPU_] |1717| 
     730 0000008f 28AA          MOV       PH,#128               ; [CPU_] |1717| 
         00000090 0080 
     731 00000091 A9AC          MOVL      XT,P                  ; [CPU_] |1717| 
TMS320C2000 Assembler PC v15.12.3 Tue Nov 29 20:40:17 2016

Tools Copyright (c) 1996-2015 Texas Instruments Incorporated
C:\Users\Cameron\AppData\Local\Temp\0172010                          PAGE   16

     732 00000092 2BAB          MOV       PL,#0                 ; [CPU_] |1717| 
     733 00000093 28AA          MOV       PH,#65408             ; [CPU_] |1717| 
         00000094 FF80 
     734 00000095 5650          MINL      ACC,XT                ; [CPU_] |1717| 
         00000096 00AC 
     735 00000097 5661          MAXL      ACC,P                 ; [CPU_] |1717| 
         00000098 00AB 
     736 00000099 FF1F          ADD       ACC,#256 << 15        ; [CPU_] |1717| 
         0000009a 0100 
     737 0000009b 1EAC          MOVL      XT,ACC                ; [CPU_] |1717| 
     738 0000009c 5605          IMPYL     P,XT,XAR0             ; [CPU_] |1717| 
         0000009d 00A0 
     739 0000009e 5663          QMPYL     ACC,XT,XAR0           ; [CPU_] |1717| 
         0000009f 00A0 
     740 000000a0 56A7          LSL64     ACC:P,#8              ; [CPU_] |1717| 
     741 000000a1 3100          MOV       P,#0                  ; [CPU_] |1717| 
     742 000000a2 5650          MINL      ACC,XAR0              ; [CPU_] |1717| 
         000000a3 00A0 
     743 000000a4 D009          MOVB      XAR0,#9               ; [CPU_] |1717| 
     744 000000a5 5661          MAXL      ACC,P                 ; [CPU_] |1717| 
         000000a6 00AB 
     745 000000a7 9695          MOV       *+XAR5[AR0],AL        ; [CPU_] |1717| 
     746                      .dwpsn  file "C:/ti/motorware/motorware_1_01_00_17/sw/modules/hal/boards/boostxldrv8301_revB/f28x/f28
     747 000000a8 000E          BANZ      $C$L2,AR6--           ; [CPU_] |1077| 
         000000a9 FFDC 
     748                      ; branchcc occurs ; [] |1077| 
     749 000000aa C5BE          MOVL      XAR7,*--SP            ; [CPU_] 
     750                      .dwcfi  cfa_offset, -12
     751                      .dwcfi  restore_reg, 18
     752 000000ab C4BE          MOVL      XAR6,*--SP            ; [CPU_] 
     753                      .dwcfi  cfa_offset, -10
     754                      .dwcfi  restore_reg, 16
     755 000000ac 83BE          MOVL      XAR5,*--SP            ; [CPU_] 
     756                      .dwcfi  cfa_offset, -8
     757                      .dwcfi  restore_reg, 14
     758 000000ad 8ABE          MOVL      XAR4,*--SP            ; [CPU_] 
     759                      .dwcfi  cfa_offset, -6
     760                      .dwcfi  restore_reg, 12
     761 000000ae 87BE          MOVL      XT,*--SP              ; [CPU_] 
     762                      .dwcfi  cfa_offset, -4
     763                      .dwcfi  restore_reg, 22
     764                      .dwcfi  restore_reg, 21
     765 000000af 0003          POP       AR1H:AR0H             ; [CPU_] 
     766                      .dwcfi  cfa_offset, -2
     767                      .dwcfi  restore_reg, 5
     768                      .dwcfi  restore_reg, 7
     769 000000b0 7617          NASP      ; [CPU_] 
     770              $C$DW$66        .dwtag  DW_TAG_TI_branch
     771                      .dwattr $C$DW$66, DW_AT_low_pc(0x00)
     772                      .dwattr $C$DW$66, DW_AT_TI_return
     773              
     774 000000b1 7602          IRET      ; [CPU_] 
     775                      ; return occurs ; [] 
     776                      .dwattr $C$DW$55, DW_AT_TI_end_file("C:/ti/motorware/motorware_1_01_00_17/sw/solutions/instaspin_foc/
     777                      .dwattr $C$DW$55, DW_AT_TI_end_line(0xf2)
TMS320C2000 Assembler PC v15.12.3 Tue Nov 29 20:40:17 2016

Tools Copyright (c) 1996-2015 Texas Instruments Incorporated
C:\Users\Cameron\AppData\Local\Temp\0172010                          PAGE   17

     778                      .dwattr $C$DW$55, DW_AT_TI_end_column(0x01)
     779                      .dwendentry
     780                      .dwendtag $C$DW$55
     781              
     782 00000000               .sect   ".text"
     783                      .clink
     784                      .global _main
     785              
     786              $C$DW$67        .dwtag  DW_TAG_subprogram
     787                      .dwattr $C$DW$67, DW_AT_name("main")
     788                      .dwattr $C$DW$67, DW_AT_low_pc(_main)
     789                      .dwattr $C$DW$67, DW_AT_high_pc(0x00)
     790                      .dwattr $C$DW$67, DW_AT_TI_symbol_name("_main")
     791                      .dwattr $C$DW$67, DW_AT_external
     792                      .dwattr $C$DW$67, DW_AT_TI_begin_file("C:/ti/motorware/motorware_1_01_00_17/sw/solutions/instaspin_fo
     793                      .dwattr $C$DW$67, DW_AT_TI_begin_line(0x73)
     794                      .dwattr $C$DW$67, DW_AT_TI_begin_column(0x06)
     795                      .dwattr $C$DW$67, DW_AT_TI_max_frame_size(-6)
     796                      .dwpsn  file "C:/ti/motorware/motorware_1_01_00_17/sw/solutions/instaspin_foc/src/proj_lab01.c",line 
     797              
     798                      .dwfde $C$DW$CIE, _main
     799              
     800              ;***************************************************************
     801              ;* FNAME: _main                         FR SIZE:   4           *
     802              ;*                                                             *
     803              ;* FUNCTION ENVIRONMENT                                        *
     804              ;*                                                             *
     805              ;* FUNCTION PROPERTIES                                         *
     806              ;*                            2 Parameter,  0 Auto,  2 SOE     *
     807              ;***************************************************************
     808              
     809              _main:
     810              ;* AR1   assigned to $O$K12
     811              ;* AR5   assigned to _obj
     812              $C$DW$68        .dwtag  DW_TAG_variable
     813                      .dwattr $C$DW$68, DW_AT_name("obj")
     814                      .dwattr $C$DW$68, DW_AT_TI_symbol_name("_obj")
     815                      .dwattr $C$DW$68, DW_AT_type(*$C$DW$T$186)
     816                      .dwattr $C$DW$68, DW_AT_location[DW_OP_reg14]
     817              
     818              ;* AR4   assigned to $O$v1
     819              ;* AR4   assigned to $O$v1
     820              ;* AR4   assigned to $O$v1
     821                      .dwcfi  cfa_offset, -2
     822                      .dwcfi  save_reg_to_mem, 26, 0
     823 00000000 B2BD          MOVL      *SP++,XAR1            ; [CPU_] 
     824                      .dwcfi  save_reg_to_mem, 7, 2
     825                      .dwcfi  cfa_offset, -4
     826 00000001 FE02          ADDB      SP,#2                 ; [CPU_U] 
     827                      .dwcfi  cfa_offset, -6
     828                      .dwpsn  file "C:/ti/motorware/motorware_1_01_00_17/sw/solutions/instaspin_foc/src/proj_lab01.c",line 
     829 00000002 8F00!         MOVL      XAR4,#_RamfuncsRunStart ; [CPU_U] |123| 
         00000003 0000 
     830 00000004 8F40!         MOVL      XAR5,#_RamfuncsLoadEnd ; [CPU_U] |123| 
         00000005 0000 
TMS320C2000 Assembler PC v15.12.3 Tue Nov 29 20:40:17 2016

Tools Copyright (c) 1996-2015 Texas Instruments Incorporated
C:\Users\Cameron\AppData\Local\Temp\0172010                          PAGE   18

     831 00000006 A842          MOVL      *-SP[2],XAR4          ; [CPU_] |123| 
     832 00000007 8F00!         MOVL      XAR4,#_RamfuncsLoadStart ; [CPU_U] |123| 
         00000008 0000 
     833              $C$DW$69        .dwtag  DW_TAG_TI_branch
     834                      .dwattr $C$DW$69, DW_AT_low_pc(0x00)
     835                      .dwattr $C$DW$69, DW_AT_name("_memCopy")
     836                      .dwattr $C$DW$69, DW_AT_TI_call
     837              
     838 00000009 7640!         LCR       #_memCopy             ; [CPU_] |123| 
         0000000a 0000 
     839                      ; call occurs [#_memCopy] ; [] |123| 
     840                      .dwpsn  file "C:/ti/motorware/motorware_1_01_00_17/sw/solutions/instaspin_foc/src/proj_lab01.c",line 
     841 0000000b 8F00!         MOVL      XAR4,#_hal            ; [CPU_U] |141| 
         0000000c 0000 
     842 0000000d 02C4          MOVB      ACC,#196              ; [CPU_] |141| 
     843              $C$DW$70        .dwtag  DW_TAG_TI_branch
     844                      .dwattr $C$DW$70, DW_AT_low_pc(0x00)
     845                      .dwattr $C$DW$70, DW_AT_name("_HAL_init")
     846                      .dwattr $C$DW$70, DW_AT_TI_call
     847              
     848 0000000e 7640!         LCR       #_HAL_init            ; [CPU_] |141| 
         0000000f 0000 
     849                      ; call occurs [#_HAL_init] ; [] |141| 
     850                      .dwpsn  file "C:/ti/motorware/motorware_1_01_00_17/sw/solutions/instaspin_foc/src/proj_lab01.c",line 
     851 00000010 8D40-         MOVL      XAR1,#_gUserParams    ; [CPU_U] |144| 
         00000011 00C0 
     852 00000012 761F-         MOVW      DP,#_halHandle        ; [CPU_U] 
         00000013 0000 
     853                      .dwpsn  file "C:/ti/motorware/motorware_1_01_00_17/sw/solutions/instaspin_foc/src/proj_lab01.c",line 
     854 00000014 A804-         MOVL      @_halHandle,XAR4      ; [CPU_] |141| 
     855                      .dwpsn  file "C:/ti/motorware/motorware_1_01_00_17/sw/solutions/instaspin_foc/src/proj_lab01.c",line 
     856 00000015 8AA1          MOVL      XAR4,XAR1             ; [CPU_] |144| 
     857              $C$DW$71        .dwtag  DW_TAG_TI_branch
     858                      .dwattr $C$DW$71, DW_AT_low_pc(0x00)
     859                      .dwattr $C$DW$71, DW_AT_name("_USER_checkForErrors")
     860                      .dwattr $C$DW$71, DW_AT_TI_call
     861              
     862 00000016 7640!         LCR       #_USER_checkForErrors ; [CPU_] |144| 
         00000017 0000 
     863                      ; call occurs [#_USER_checkForErrors] ; [] |144| 
     864                      .dwpsn  file "C:/ti/motorware/motorware_1_01_00_17/sw/solutions/instaspin_foc/src/proj_lab01.c",line 
     865 00000018 8AA1          MOVL      XAR4,XAR1             ; [CPU_] |147| 
     866              $C$DW$72        .dwtag  DW_TAG_TI_branch
     867                      .dwattr $C$DW$72, DW_AT_low_pc(0x00)
     868                      .dwattr $C$DW$72, DW_AT_name("_USER_getErrorCode")
     869                      .dwattr $C$DW$72, DW_AT_TI_call
     870              
     871 00000019 7640!         LCR       #_USER_getErrorCode   ; [CPU_] |147| 
         0000001a 0000 
     872                      ; call occurs [#_USER_getErrorCode] ; [] |147| 
     873 0000001b 761F-         MOVW      DP,#_gMotorVars+15    ; [CPU_U] 
         0000001c 0001 
     874 0000001d 960F-         MOV       @_gMotorVars+15,AL    ; [CPU_] |147| 
     875                      .dwpsn  file "C:/ti/motorware/motorware_1_01_00_17/sw/solutions/instaspin_foc/src/proj_lab01.c",line 
     876 0000001e 920F-         MOV       AL,@_gMotorVars+15    ; [CPU_] |150| 
TMS320C2000 Assembler PC v15.12.3 Tue Nov 29 20:40:17 2016

Tools Copyright (c) 1996-2015 Texas Instruments Incorporated
C:\Users\Cameron\AppData\Local\Temp\0172010                          PAGE   19

     877 0000001f 6053          B         $C$L4,NEQ             ; [CPU_] |150| 
     878                      ; branchcc occurs ; [] |150| 
     879                      .dwpsn  file "C:/ti/motorware/motorware_1_01_00_17/sw/solutions/instaspin_foc/src/proj_lab01.c",line 
     880 00000020 8AA1          MOVL      XAR4,XAR1             ; [CPU_] |159| 
     881              $C$DW$73        .dwtag  DW_TAG_TI_branch
     882                      .dwattr $C$DW$73, DW_AT_low_pc(0x00)
     883                      .dwattr $C$DW$73, DW_AT_name("_USER_setParams")
     884                      .dwattr $C$DW$73, DW_AT_TI_call
     885              
     886 00000021 7640!         LCR       #_USER_setParams      ; [CPU_] |159| 
         00000022 0000 
     887                      ; call occurs [#_USER_setParams] ; [] |159| 
     888 00000023 761F-         MOVW      DP,#_halHandle        ; [CPU_U] 
         00000024 0000 
     889                      .dwpsn  file "C:/ti/motorware/motorware_1_01_00_17/sw/solutions/instaspin_foc/src/proj_lab01.c",line 
     890 00000025 83A1          MOVL      XAR5,XAR1             ; [CPU_] |162| 
     891 00000026 8A04-         MOVL      XAR4,@_halHandle      ; [CPU_] |162| 
     892              $C$DW$74        .dwtag  DW_TAG_TI_branch
     893                      .dwattr $C$DW$74, DW_AT_low_pc(0x00)
     894                      .dwattr $C$DW$74, DW_AT_name("_HAL_setParams")
     895                      .dwattr $C$DW$74, DW_AT_TI_call
     896              
     897 00000027 7640!         LCR       #_HAL_setParams       ; [CPU_] |162| 
         00000028 0000 
     898                      ; call occurs [#_HAL_setParams] ; [] |162| 
     899 00000029 761F-         MOVW      DP,#_halHandle        ; [CPU_U] 
         0000002a 0000 
     900                      .dwpsn  file "C:/ti/motorware/motorware_1_01_00_17/sw/solutions/instaspin_foc/src/proj_lab01.c",line 
     901 0000002b 8A04-         MOVL      XAR4,@_halHandle      ; [CPU_] |167| 
     902              $C$DW$75        .dwtag  DW_TAG_TI_branch
     903                      .dwattr $C$DW$75, DW_AT_low_pc(0x00)
     904                      .dwattr $C$DW$75, DW_AT_name("_HAL_setupLaunchPadGpio0and1")
     905                      .dwattr $C$DW$75, DW_AT_TI_call
     906              
     907 0000002c 7640!         LCR       #_HAL_setupLaunchPadGpio0and1 ; [CPU_] |167| 
         0000002d 0000 
     908                      ; call occurs [#_HAL_setupLaunchPadGpio0and1] ; [] |167| 
     909 0000002e 761F-         MOVW      DP,#_halHandle        ; [CPU_U] 
         0000002f 0000 
     910                      .dwpsn  file "C:/ti/motorware/motorware_1_01_00_17/sw/solutions/instaspin_foc/src/proj_lab01.c",line 
     911 00000030 8A04-         MOVL      XAR4,@_halHandle      ; [CPU_] |171| 
     912              $C$DW$76        .dwtag  DW_TAG_TI_branch
     913                      .dwattr $C$DW$76, DW_AT_low_pc(0x00)
     914                      .dwattr $C$DW$76, DW_AT_name("_HAL_setupFaults")
     915                      .dwattr $C$DW$76, DW_AT_TI_call
     916              
     917 00000031 7640!         LCR       #_HAL_setupFaults     ; [CPU_] |171| 
         00000032 0000 
     918                      ; call occurs [#_HAL_setupFaults] ; [] |171| 
     919 00000033 761F-         MOVW      DP,#_halHandle        ; [CPU_U] 
         00000034 0000 
     920                      .dwpsn  file "C:/ti/motorware/motorware_1_01_00_17/sw/solutions/instaspin_foc/src/proj_lab01.c",line 
     921 00000035 8A04-         MOVL      XAR4,@_halHandle      ; [CPU_] |175| 
     922 00000036 7622   EALLOW
     923                      .dwpsn  file "C:/ti/motorware/motorware_1_01_00_17/sw/modules/hal/boards/boostxldrv8301_revB/f28x/f28
TMS320C2000 Assembler PC v15.12.3 Tue Nov 29 20:40:17 2016

Tools Copyright (c) 1996-2015 Texas Instruments Incorporated
C:\Users\Cameron\AppData\Local\Temp\0172010                          PAGE   20

     924 00000037 D078          MOVB      XAR0,#120             ; [CPU_] |477| 
     925 00000038 02F0          MOVB      ACC,#240              ; [CPU_] |477| 
     926 00000039 0794          ADDL      ACC,*+XAR4[AR0]       ; [CPU_] |477| 
     927 0000003a 83A9          MOVL      XAR5,ACC              ; [CPU_] |477| 
     928 0000003b 7680+         MOVL      XAR6,#_mainISR        ; [CPU_U] |477| 
         0000003c 0000 
     929 0000003d C2C5          MOVL      *+XAR5[0],XAR6        ; [CPU_] |477| 
     930 0000003e 761A   EDIS
     931 0000003f FF69          SPM       #0                    ; [CPU_] 
     932                      .dwpsn  file "C:/ti/motorware/motorware_1_01_00_17/sw/solutions/instaspin_foc/src/proj_lab01.c",line 
     933              $C$DW$77        .dwtag  DW_TAG_TI_branch
     934                      .dwattr $C$DW$77, DW_AT_low_pc(0x00)
     935                      .dwattr $C$DW$77, DW_AT_name("_HAL_enableAdcInts")
     936                      .dwattr $C$DW$77, DW_AT_TI_call
     937              
     938 00000040 7640!         LCR       #_HAL_enableAdcInts   ; [CPU_] |179| 
         00000041 0000 
     939                      ; call occurs [#_HAL_enableAdcInts] ; [] |179| 
     940 00000042 761F-         MOVW      DP,#_halHandle        ; [CPU_U] 
         00000043 0000 
     941                      .dwpsn  file "C:/ti/motorware/motorware_1_01_00_17/sw/solutions/instaspin_foc/src/proj_lab01.c",line 
     942 00000044 8A04-         MOVL      XAR4,@_halHandle      ; [CPU_] |183| 
     943              $C$DW$78        .dwtag  DW_TAG_TI_branch
     944                      .dwattr $C$DW$78, DW_AT_low_pc(0x00)
     945                      .dwattr $C$DW$78, DW_AT_name("_HAL_enableGlobalInts")
     946                      .dwattr $C$DW$78, DW_AT_TI_call
     947              
     948 00000045 7640!         LCR       #_HAL_enableGlobalInts ; [CPU_] |183| 
         00000046 0000 
     949                      ; call occurs [#_HAL_enableGlobalInts] ; [] |183| 
     950 00000047 761F-         MOVW      DP,#_halHandle        ; [CPU_U] 
         00000048 0000 
     951                      .dwpsn  file "C:/ti/motorware/motorware_1_01_00_17/sw/solutions/instaspin_foc/src/proj_lab01.c",line 
     952 00000049 8A04-         MOVL      XAR4,@_halHandle      ; [CPU_] |187| 
     953              $C$DW$79        .dwtag  DW_TAG_TI_branch
     954                      .dwattr $C$DW$79, DW_AT_low_pc(0x00)
     955                      .dwattr $C$DW$79, DW_AT_name("_HAL_enableDebugInt")
     956                      .dwattr $C$DW$79, DW_AT_TI_call
     957              
     958 0000004a 7640!         LCR       #_HAL_enableDebugInt  ; [CPU_] |187| 
         0000004b 0000 
     959                      ; call occurs [#_HAL_enableDebugInt] ; [] |187| 
     960 0000004c 761F-         MOVW      DP,#_halHandle        ; [CPU_U] 
         0000004d 0000 
     961                      .dwpsn  file "C:/ti/motorware/motorware_1_01_00_17/sw/solutions/instaspin_foc/src/proj_lab01.c",line 
     962 0000004e 8A04-         MOVL      XAR4,@_halHandle      ; [CPU_] |191| 
     963                      .dwpsn  file "C:/ti/motorware/motorware_1_01_00_17/sw/modules/hal/boards/boostxldrv8301_revB/f28x/f28
     964 0000004f 83A4          MOVL      XAR5,XAR4             ; [CPU_] |240| 
     965 00000050 DD7E          ADDB      XAR5,#126             ; [CPU_] |240| 
     966 00000051 7622   EALLOW
     967                      .dwpsn  file "C:/ti/motorware/motorware_1_01_00_17/sw/drivers/pwm/src/32b/f28x/f2802x/pwm.h",line 156
     968 00000052 D07C          MOVB      XAR0,#124             ; [CPU_] |1567| 
     969 00000053 0218          MOVB      ACC,#24               ; [CPU_] |1567| 
     970 00000054 0794          ADDL      ACC,*+XAR4[AR0]       ; [CPU_] |1567| 
     971 00000055 1EA6          MOVL      XAR6,ACC              ; [CPU_] |1567| 
TMS320C2000 Assembler PC v15.12.3 Tue Nov 29 20:40:17 2016

Tools Copyright (c) 1996-2015 Texas Instruments Incorporated
C:\Users\Cameron\AppData\Local\Temp\0172010                          PAGE   21

     972 00000056 1AC6          OR        *+XAR6[0],#0x0004     ; [CPU_] |1567| 
         00000057 0004 
     973 00000058 761A   EDIS
     974 00000059 7622   EALLOW
     975 0000005a 0218          MOVB      ACC,#24               ; [CPU_] |1567| 
     976 0000005b 07C5          ADDL      ACC,*+XAR5[0]         ; [CPU_] |1567| 
     977 0000005c 1EA6          MOVL      XAR6,ACC              ; [CPU_] |1567| 
     978 0000005d 1AC6          OR        *+XAR6[0],#0x0004     ; [CPU_] |1567| 
         0000005e 0004 
     979 0000005f 761A   EDIS
     980 00000060 7622   EALLOW
     981 00000061 0218          MOVB      ACC,#24               ; [CPU_] |1567| 
     982 00000062 07D5          ADDL      ACC,*+XAR5[2]         ; [CPU_] |1567| 
     983 00000063 83A9          MOVL      XAR5,ACC              ; [CPU_] |1567| 
     984 00000064 1AC5          OR        *+XAR5[0],#0x0004     ; [CPU_] |1567| 
         00000065 0004 
     985 00000066 761A   EDIS
     986 00000067 FF69          SPM       #0                    ; [CPU_] 
     987                      .dwpsn  file "C:/ti/motorware/motorware_1_01_00_17/sw/solutions/instaspin_foc/src/proj_lab01.c",line 
     988              $C$DW$80        .dwtag  DW_TAG_TI_branch
     989                      .dwattr $C$DW$80, DW_AT_low_pc(0x00)
     990                      .dwattr $C$DW$80, DW_AT_name("_HAL_enableDrv")
     991                      .dwattr $C$DW$80, DW_AT_TI_call
     992              
     993 00000068 7640!         LCR       #_HAL_enableDrv       ; [CPU_] |196| 
         00000069 0000 
     994                      ; call occurs [#_HAL_enableDrv] ; [] |196| 
     995 0000006a 761F-         MOVW      DP,#_halHandle        ; [CPU_U] 
         0000006b 0000 
     996                      .dwpsn  file "C:/ti/motorware/motorware_1_01_00_17/sw/solutions/instaspin_foc/src/proj_lab01.c",line 
     997 0000006c 8F40-         MOVL      XAR5,#_gDrvSpi8301Vars ; [CPU_U] |198| 
         0000006d 001A 
     998 0000006e 8A04-         MOVL      XAR4,@_halHandle      ; [CPU_] |198| 
     999              $C$DW$81        .dwtag  DW_TAG_TI_branch
    1000                      .dwattr $C$DW$81, DW_AT_low_pc(0x00)
    1001                      .dwattr $C$DW$81, DW_AT_name("_HAL_setupDrvSpi")
    1002                      .dwattr $C$DW$81, DW_AT_TI_call
    1003              
    1004 0000006f 7640!         LCR       #_HAL_setupDrvSpi     ; [CPU_] |198| 
         00000070 0000 
    1005                      ; call occurs [#_HAL_setupDrvSpi] ; [] |198| 
    1006 00000071       $C$L3:    
    1007                      .dwpsn  file "C:/ti/motorware/motorware_1_01_00_17/sw/solutions/instaspin_foc/src/proj_lab01.c",line 
    1008 00000071 6F00          B         $C$L3,UNC             ; [CPU_] |210| 
    1009                      ; branch occurs ; [] |210| 
    1010 00000072       $C$L4:    
    1011                      .dwpsn  file "C:/ti/motorware/motorware_1_01_00_17/sw/solutions/instaspin_foc/src/proj_lab01.c",line 
    1012 00000072 2B00-         MOV       @_gMotorVars,#0       ; [CPU_] |154| 
    1013                      .dwpsn  file "C:/ti/motorware/motorware_1_01_00_17/sw/solutions/instaspin_foc/src/proj_lab01.c",line 
    1014 00000073 6FFF          B         $C$L4,UNC             ; [CPU_] |155| 
    1015                      ; branch occurs ; [] |155| 
    1016                      .dwattr $C$DW$67, DW_AT_TI_end_file("C:/ti/motorware/motorware_1_01_00_17/sw/solutions/instaspin_foc/
    1017                      .dwattr $C$DW$67, DW_AT_TI_end_line(0xd4)
    1018                      .dwattr $C$DW$67, DW_AT_TI_end_column(0x01)
    1019                      .dwendentry
TMS320C2000 Assembler PC v15.12.3 Tue Nov 29 20:40:17 2016

Tools Copyright (c) 1996-2015 Texas Instruments Incorporated
C:\Users\Cameron\AppData\Local\Temp\0172010                          PAGE   22

    1020                      .dwendtag $C$DW$67
    1021              
    1022              ;**************************************************************
    1023              ;* UNDEFINED EXTERNAL REFERENCES                              *
    1024              ;**************************************************************
    1025                      .global _HAL_setupFaults
    1026                      .global _HAL_enableDrv
    1027                      .global _HAL_enableDebugInt
    1028                      .global _HAL_enableAdcInts
    1029                      .global _HAL_enableGlobalInts
    1030                      .global _HAL_setupDrvSpi
    1031                      .global _HAL_setParams
    1032                      .global _HAL_setupLaunchPadGpio0and1
    1033                      .global _GPIO_toggle
    1034                      .global _memCopy
    1035                      .global _USER_setParams
    1036                      .global _USER_checkForErrors
    1037                      .global _USER_getErrorCode
    1038                      .global _RamfuncsRunStart
    1039                      .global _RamfuncsLoadEnd
    1040                      .global _RamfuncsLoadStart
    1041                      .global _HAL_init
    1042                      .global _hal
    1043              
    1044              ;***************************************************************
    1045              ;* TYPE INFORMATION                                            *
    1046              ;***************************************************************
    1047              
    1048              $C$DW$T$34      .dwtag  DW_TAG_enumeration_type
    1049                      .dwattr $C$DW$T$34, DW_AT_byte_size(0x01)
    1050              $C$DW$82        .dwtag  DW_TAG_enumerator
    1051                      .dwattr $C$DW$82, DW_AT_name("CTRL_TargetProc_2806x")
    1052                      .dwattr $C$DW$82, DW_AT_const_value(0x00)
    1053              
    1054              $C$DW$83        .dwtag  DW_TAG_enumerator
    1055                      .dwattr $C$DW$83, DW_AT_name("CTRL_TargetProc_2805x")
    1056                      .dwattr $C$DW$83, DW_AT_const_value(0x01)
    1057              
    1058              $C$DW$84        .dwtag  DW_TAG_enumerator
    1059                      .dwattr $C$DW$84, DW_AT_name("CTRL_TargetProc_2803x")
    1060                      .dwattr $C$DW$84, DW_AT_const_value(0x02)
    1061              
    1062              $C$DW$85        .dwtag  DW_TAG_enumerator
    1063                      .dwattr $C$DW$85, DW_AT_name("CTRL_TargetProc_2802x")
    1064                      .dwattr $C$DW$85, DW_AT_const_value(0x03)
    1065              
    1066              $C$DW$86        .dwtag  DW_TAG_enumerator
    1067                      .dwattr $C$DW$86, DW_AT_name("CTRL_TargetProc_Unknown")
    1068                      .dwattr $C$DW$86, DW_AT_const_value(0x04)
    1069              
    1070                      .dwendtag $C$DW$T$34
    1071              
    1072              $C$DW$T$35      .dwtag  DW_TAG_typedef
    1073                      .dwattr $C$DW$T$35, DW_AT_name("CTRL_TargetProc_e")
    1074                      .dwattr $C$DW$T$35, DW_AT_type(*$C$DW$T$34)
TMS320C2000 Assembler PC v15.12.3 Tue Nov 29 20:40:17 2016

Tools Copyright (c) 1996-2015 Texas Instruments Incorporated
C:\Users\Cameron\AppData\Local\Temp\0172010                          PAGE   23

    1075                      .dwattr $C$DW$T$35, DW_AT_language(DW_LANG_C)
    1076              
    1077              
    1078              $C$DW$T$41      .dwtag  DW_TAG_enumeration_type
    1079                      .dwattr $C$DW$T$41, DW_AT_byte_size(0x01)
    1080              $C$DW$87        .dwtag  DW_TAG_enumerator
    1081                      .dwattr $C$DW$87, DW_AT_name("GPIO_Number_0")
    1082                      .dwattr $C$DW$87, DW_AT_const_value(0x00)
    1083              
    1084              $C$DW$88        .dwtag  DW_TAG_enumerator
    1085                      .dwattr $C$DW$88, DW_AT_name("GPIO_Number_1")
    1086                      .dwattr $C$DW$88, DW_AT_const_value(0x01)
    1087              
    1088              $C$DW$89        .dwtag  DW_TAG_enumerator
    1089                      .dwattr $C$DW$89, DW_AT_name("GPIO_Number_2")
    1090                      .dwattr $C$DW$89, DW_AT_const_value(0x02)
    1091              
    1092              $C$DW$90        .dwtag  DW_TAG_enumerator
    1093                      .dwattr $C$DW$90, DW_AT_name("GPIO_Number_3")
    1094                      .dwattr $C$DW$90, DW_AT_const_value(0x03)
    1095              
    1096              $C$DW$91        .dwtag  DW_TAG_enumerator
    1097                      .dwattr $C$DW$91, DW_AT_name("GPIO_Number_4")
    1098                      .dwattr $C$DW$91, DW_AT_const_value(0x04)
    1099              
    1100              $C$DW$92        .dwtag  DW_TAG_enumerator
    1101                      .dwattr $C$DW$92, DW_AT_name("GPIO_Number_5")
    1102                      .dwattr $C$DW$92, DW_AT_const_value(0x05)
    1103              
    1104              $C$DW$93        .dwtag  DW_TAG_enumerator
    1105                      .dwattr $C$DW$93, DW_AT_name("GPIO_Number_6")
    1106                      .dwattr $C$DW$93, DW_AT_const_value(0x06)
    1107              
    1108              $C$DW$94        .dwtag  DW_TAG_enumerator
    1109                      .dwattr $C$DW$94, DW_AT_name("GPIO_Number_7")
    1110                      .dwattr $C$DW$94, DW_AT_const_value(0x07)
    1111              
    1112              $C$DW$95        .dwtag  DW_TAG_enumerator
    1113                      .dwattr $C$DW$95, DW_AT_name("GPIO_Rsvd_8")
    1114                      .dwattr $C$DW$95, DW_AT_const_value(0x08)
    1115              
    1116              $C$DW$96        .dwtag  DW_TAG_enumerator
    1117                      .dwattr $C$DW$96, DW_AT_name("GPIO_Rsvd_9")
    1118                      .dwattr $C$DW$96, DW_AT_const_value(0x09)
    1119              
    1120              $C$DW$97        .dwtag  DW_TAG_enumerator
    1121                      .dwattr $C$DW$97, DW_AT_name("GPIO_Rsvd_10")
    1122                      .dwattr $C$DW$97, DW_AT_const_value(0x0a)
    1123              
    1124              $C$DW$98        .dwtag  DW_TAG_enumerator
    1125                      .dwattr $C$DW$98, DW_AT_name("GPIO_Rsvd_11")
    1126                      .dwattr $C$DW$98, DW_AT_const_value(0x0b)
    1127              
    1128              $C$DW$99        .dwtag  DW_TAG_enumerator
    1129                      .dwattr $C$DW$99, DW_AT_name("GPIO_Number_12")
TMS320C2000 Assembler PC v15.12.3 Tue Nov 29 20:40:17 2016

Tools Copyright (c) 1996-2015 Texas Instruments Incorporated
C:\Users\Cameron\AppData\Local\Temp\0172010                          PAGE   24

    1130                      .dwattr $C$DW$99, DW_AT_const_value(0x0c)
    1131              
    1132              $C$DW$100       .dwtag  DW_TAG_enumerator
    1133                      .dwattr $C$DW$100, DW_AT_name("GPIO_Rsvd_13")
    1134                      .dwattr $C$DW$100, DW_AT_const_value(0x0d)
    1135              
    1136              $C$DW$101       .dwtag  DW_TAG_enumerator
    1137                      .dwattr $C$DW$101, DW_AT_name("GPIO_Rsvd_14")
    1138                      .dwattr $C$DW$101, DW_AT_const_value(0x0e)
    1139              
    1140              $C$DW$102       .dwtag  DW_TAG_enumerator
    1141                      .dwattr $C$DW$102, DW_AT_name("GPIO_Rsvd_15")
    1142                      .dwattr $C$DW$102, DW_AT_const_value(0x0f)
    1143              
    1144              $C$DW$103       .dwtag  DW_TAG_enumerator
    1145                      .dwattr $C$DW$103, DW_AT_name("GPIO_Number_16")
    1146                      .dwattr $C$DW$103, DW_AT_const_value(0x10)
    1147              
    1148              $C$DW$104       .dwtag  DW_TAG_enumerator
    1149                      .dwattr $C$DW$104, DW_AT_name("GPIO_Number_17")
    1150                      .dwattr $C$DW$104, DW_AT_const_value(0x11)
    1151              
    1152              $C$DW$105       .dwtag  DW_TAG_enumerator
    1153                      .dwattr $C$DW$105, DW_AT_name("GPIO_Number_18")
    1154                      .dwattr $C$DW$105, DW_AT_const_value(0x12)
    1155              
    1156              $C$DW$106       .dwtag  DW_TAG_enumerator
    1157                      .dwattr $C$DW$106, DW_AT_name("GPIO_Number_19")
    1158                      .dwattr $C$DW$106, DW_AT_const_value(0x13)
    1159              
    1160              $C$DW$107       .dwtag  DW_TAG_enumerator
    1161                      .dwattr $C$DW$107, DW_AT_name("GPIO_Rsvd_20")
    1162                      .dwattr $C$DW$107, DW_AT_const_value(0x14)
    1163              
    1164              $C$DW$108       .dwtag  DW_TAG_enumerator
    1165                      .dwattr $C$DW$108, DW_AT_name("GPIO_Rsvd_21")
    1166                      .dwattr $C$DW$108, DW_AT_const_value(0x15)
    1167              
    1168              $C$DW$109       .dwtag  DW_TAG_enumerator
    1169                      .dwattr $C$DW$109, DW_AT_name("GPIO_Rsvd_22")
    1170                      .dwattr $C$DW$109, DW_AT_const_value(0x16)
    1171              
    1172              $C$DW$110       .dwtag  DW_TAG_enumerator
    1173                      .dwattr $C$DW$110, DW_AT_name("GPIO_Rsvd_23")
    1174                      .dwattr $C$DW$110, DW_AT_const_value(0x17)
    1175              
    1176              $C$DW$111       .dwtag  DW_TAG_enumerator
    1177                      .dwattr $C$DW$111, DW_AT_name("GPIO_Rsvd_24")
    1178                      .dwattr $C$DW$111, DW_AT_const_value(0x18)
    1179              
    1180              $C$DW$112       .dwtag  DW_TAG_enumerator
    1181                      .dwattr $C$DW$112, DW_AT_name("GPIO_Rsvd_25")
    1182                      .dwattr $C$DW$112, DW_AT_const_value(0x19)
    1183              
    1184              $C$DW$113       .dwtag  DW_TAG_enumerator
TMS320C2000 Assembler PC v15.12.3 Tue Nov 29 20:40:17 2016

Tools Copyright (c) 1996-2015 Texas Instruments Incorporated
C:\Users\Cameron\AppData\Local\Temp\0172010                          PAGE   25

    1185                      .dwattr $C$DW$113, DW_AT_name("GPIO_Rsvd_26")
    1186                      .dwattr $C$DW$113, DW_AT_const_value(0x1a)
    1187              
    1188              $C$DW$114       .dwtag  DW_TAG_enumerator
    1189                      .dwattr $C$DW$114, DW_AT_name("GPIO_Rsvd_27")
    1190                      .dwattr $C$DW$114, DW_AT_const_value(0x1b)
    1191              
    1192              $C$DW$115       .dwtag  DW_TAG_enumerator
    1193                      .dwattr $C$DW$115, DW_AT_name("GPIO_Number_28")
    1194                      .dwattr $C$DW$115, DW_AT_const_value(0x1c)
    1195              
    1196              $C$DW$116       .dwtag  DW_TAG_enumerator
    1197                      .dwattr $C$DW$116, DW_AT_name("GPIO_Number_29")
    1198                      .dwattr $C$DW$116, DW_AT_const_value(0x1d)
    1199              
    1200              $C$DW$117       .dwtag  DW_TAG_enumerator
    1201                      .dwattr $C$DW$117, DW_AT_name("GPIO_Rsvd_30")
    1202                      .dwattr $C$DW$117, DW_AT_const_value(0x1e)
    1203              
    1204              $C$DW$118       .dwtag  DW_TAG_enumerator
    1205                      .dwattr $C$DW$118, DW_AT_name("GPIO_Rsvd_31")
    1206                      .dwattr $C$DW$118, DW_AT_const_value(0x1f)
    1207              
    1208              $C$DW$119       .dwtag  DW_TAG_enumerator
    1209                      .dwattr $C$DW$119, DW_AT_name("GPIO_Number_32")
    1210                      .dwattr $C$DW$119, DW_AT_const_value(0x20)
    1211              
    1212              $C$DW$120       .dwtag  DW_TAG_enumerator
    1213                      .dwattr $C$DW$120, DW_AT_name("GPIO_Number_33")
    1214                      .dwattr $C$DW$120, DW_AT_const_value(0x21)
    1215              
    1216              $C$DW$121       .dwtag  DW_TAG_enumerator
    1217                      .dwattr $C$DW$121, DW_AT_name("GPIO_Number_34")
    1218                      .dwattr $C$DW$121, DW_AT_const_value(0x22)
    1219              
    1220              $C$DW$122       .dwtag  DW_TAG_enumerator
    1221                      .dwattr $C$DW$122, DW_AT_name("GPIO_Number_35")
    1222                      .dwattr $C$DW$122, DW_AT_const_value(0x23)
    1223              
    1224              $C$DW$123       .dwtag  DW_TAG_enumerator
    1225                      .dwattr $C$DW$123, DW_AT_name("GPIO_Number_36")
    1226                      .dwattr $C$DW$123, DW_AT_const_value(0x24)
    1227              
    1228              $C$DW$124       .dwtag  DW_TAG_enumerator
    1229                      .dwattr $C$DW$124, DW_AT_name("GPIO_Number_37")
    1230                      .dwattr $C$DW$124, DW_AT_const_value(0x25)
    1231              
    1232              $C$DW$125       .dwtag  DW_TAG_enumerator
    1233                      .dwattr $C$DW$125, DW_AT_name("GPIO_Number_38")
    1234                      .dwattr $C$DW$125, DW_AT_const_value(0x26)
    1235              
    1236              $C$DW$126       .dwtag  DW_TAG_enumerator
    1237                      .dwattr $C$DW$126, DW_AT_name("GPIO_numGpios")
    1238                      .dwattr $C$DW$126, DW_AT_const_value(0x27)
    1239              
TMS320C2000 Assembler PC v15.12.3 Tue Nov 29 20:40:17 2016

Tools Copyright (c) 1996-2015 Texas Instruments Incorporated
C:\Users\Cameron\AppData\Local\Temp\0172010                          PAGE   26

    1240                      .dwendtag $C$DW$T$41
    1241              
    1242              $C$DW$T$42      .dwtag  DW_TAG_typedef
    1243                      .dwattr $C$DW$T$42, DW_AT_name("GPIO_Number_e")
    1244                      .dwattr $C$DW$T$42, DW_AT_type(*$C$DW$T$41)
    1245                      .dwattr $C$DW$T$42, DW_AT_language(DW_LANG_C)
    1246              
    1247              $C$DW$127       .dwtag  DW_TAG_TI_far_type
    1248                      .dwattr $C$DW$127, DW_AT_type(*$C$DW$T$42)
    1249              
    1250              $C$DW$T$164     .dwtag  DW_TAG_const_type
    1251                      .dwattr $C$DW$T$164, DW_AT_type(*$C$DW$127)
    1252              
    1253              
    1254              $C$DW$T$45      .dwtag  DW_TAG_enumeration_type
    1255                      .dwattr $C$DW$T$45, DW_AT_byte_size(0x01)
    1256              $C$DW$128       .dwtag  DW_TAG_enumerator
    1257                      .dwattr $C$DW$128, DW_AT_name("DRV8301_PeakCurrent_1p70_A")
    1258                      .dwattr $C$DW$128, DW_AT_const_value(0x00)
    1259              
    1260              $C$DW$129       .dwtag  DW_TAG_enumerator
    1261                      .dwattr $C$DW$129, DW_AT_name("DRV8301_PeakCurrent_0p70_A")
    1262                      .dwattr $C$DW$129, DW_AT_const_value(0x01)
    1263              
    1264              $C$DW$130       .dwtag  DW_TAG_enumerator
    1265                      .dwattr $C$DW$130, DW_AT_name("DRV8301_PeakCurrent_0p25_A")
    1266                      .dwattr $C$DW$130, DW_AT_const_value(0x02)
    1267              
    1268                      .dwendtag $C$DW$T$45
    1269              
    1270              $C$DW$T$46      .dwtag  DW_TAG_typedef
    1271                      .dwattr $C$DW$T$46, DW_AT_name("DRV8301_PeakCurrent_e")
    1272                      .dwattr $C$DW$T$46, DW_AT_type(*$C$DW$T$45)
    1273                      .dwattr $C$DW$T$46, DW_AT_language(DW_LANG_C)
    1274              
    1275              
    1276              $C$DW$T$47      .dwtag  DW_TAG_enumeration_type
    1277                      .dwattr $C$DW$T$47, DW_AT_byte_size(0x01)
    1278              $C$DW$131       .dwtag  DW_TAG_enumerator
    1279                      .dwattr $C$DW$131, DW_AT_name("DRV8301_Reset_Normal")
    1280                      .dwattr $C$DW$131, DW_AT_const_value(0x00)
    1281              
    1282              $C$DW$132       .dwtag  DW_TAG_enumerator
    1283                      .dwattr $C$DW$132, DW_AT_name("DRV8301_Reset_All")
    1284                      .dwattr $C$DW$132, DW_AT_const_value(0x04)
    1285              
    1286                      .dwendtag $C$DW$T$47
    1287              
    1288              $C$DW$T$48      .dwtag  DW_TAG_typedef
    1289                      .dwattr $C$DW$T$48, DW_AT_name("DRV8301_Reset_e")
    1290                      .dwattr $C$DW$T$48, DW_AT_type(*$C$DW$T$47)
    1291                      .dwattr $C$DW$T$48, DW_AT_language(DW_LANG_C)
    1292              
    1293              
    1294              $C$DW$T$49      .dwtag  DW_TAG_enumeration_type
TMS320C2000 Assembler PC v15.12.3 Tue Nov 29 20:40:17 2016

Tools Copyright (c) 1996-2015 Texas Instruments Incorporated
C:\Users\Cameron\AppData\Local\Temp\0172010                          PAGE   27

    1295                      .dwattr $C$DW$T$49, DW_AT_byte_size(0x01)
    1296              $C$DW$133       .dwtag  DW_TAG_enumerator
    1297                      .dwattr $C$DW$133, DW_AT_name("DRV8301_PwmMode_Six_Inputs")
    1298                      .dwattr $C$DW$133, DW_AT_const_value(0x00)
    1299              
    1300              $C$DW$134       .dwtag  DW_TAG_enumerator
    1301                      .dwattr $C$DW$134, DW_AT_name("DRV8301_PwmMode_Three_Inputs")
    1302                      .dwattr $C$DW$134, DW_AT_const_value(0x08)
    1303              
    1304                      .dwendtag $C$DW$T$49
    1305              
    1306              $C$DW$T$50      .dwtag  DW_TAG_typedef
    1307                      .dwattr $C$DW$T$50, DW_AT_name("DRV8301_PwmMode_e")
    1308                      .dwattr $C$DW$T$50, DW_AT_type(*$C$DW$T$49)
    1309                      .dwattr $C$DW$T$50, DW_AT_language(DW_LANG_C)
    1310              
    1311              
    1312              $C$DW$T$51      .dwtag  DW_TAG_enumeration_type
    1313                      .dwattr $C$DW$T$51, DW_AT_byte_size(0x01)
    1314              $C$DW$135       .dwtag  DW_TAG_enumerator
    1315                      .dwattr $C$DW$135, DW_AT_name("DRV8301_OcMode_CurrentLimit")
    1316                      .dwattr $C$DW$135, DW_AT_const_value(0x00)
    1317              
    1318              $C$DW$136       .dwtag  DW_TAG_enumerator
    1319                      .dwattr $C$DW$136, DW_AT_name("DRV8301_OcMode_LatchShutDown")
    1320                      .dwattr $C$DW$136, DW_AT_const_value(0x10)
    1321              
    1322              $C$DW$137       .dwtag  DW_TAG_enumerator
    1323                      .dwattr $C$DW$137, DW_AT_name("DRV8301_OcMode_ReportOnly")
    1324                      .dwattr $C$DW$137, DW_AT_const_value(0x20)
    1325              
    1326              $C$DW$138       .dwtag  DW_TAG_enumerator
    1327                      .dwattr $C$DW$138, DW_AT_name("DRV8301_OcMode_Disabled")
    1328                      .dwattr $C$DW$138, DW_AT_const_value(0x30)
    1329              
    1330                      .dwendtag $C$DW$T$51
    1331              
    1332              $C$DW$T$52      .dwtag  DW_TAG_typedef
    1333                      .dwattr $C$DW$T$52, DW_AT_name("DRV8301_OcMode_e")
    1334                      .dwattr $C$DW$T$52, DW_AT_type(*$C$DW$T$51)
    1335                      .dwattr $C$DW$T$52, DW_AT_language(DW_LANG_C)
    1336              
    1337              
    1338              $C$DW$T$53      .dwtag  DW_TAG_enumeration_type
    1339                      .dwattr $C$DW$T$53, DW_AT_byte_size(0x01)
    1340              $C$DW$139       .dwtag  DW_TAG_enumerator
    1341                      .dwattr $C$DW$139, DW_AT_name("DRV8301_VdsLevel_0p060_V")
    1342                      .dwattr $C$DW$139, DW_AT_const_value(0x00)
    1343              
    1344              $C$DW$140       .dwtag  DW_TAG_enumerator
    1345                      .dwattr $C$DW$140, DW_AT_name("DRV8301_VdsLevel_0p068_V")
    1346                      .dwattr $C$DW$140, DW_AT_const_value(0x40)
    1347              
    1348              $C$DW$141       .dwtag  DW_TAG_enumerator
    1349                      .dwattr $C$DW$141, DW_AT_name("DRV8301_VdsLevel_0p076_V")
TMS320C2000 Assembler PC v15.12.3 Tue Nov 29 20:40:17 2016

Tools Copyright (c) 1996-2015 Texas Instruments Incorporated
C:\Users\Cameron\AppData\Local\Temp\0172010                          PAGE   28

    1350                      .dwattr $C$DW$141, DW_AT_const_value(0x80)
    1351              
    1352              $C$DW$142       .dwtag  DW_TAG_enumerator
    1353                      .dwattr $C$DW$142, DW_AT_name("DRV8301_VdsLevel_0p086_V")
    1354                      .dwattr $C$DW$142, DW_AT_const_value(0xc0)
    1355              
    1356              $C$DW$143       .dwtag  DW_TAG_enumerator
    1357                      .dwattr $C$DW$143, DW_AT_name("DRV8301_VdsLevel_0p097_V")
    1358                      .dwattr $C$DW$143, DW_AT_const_value(0x100)
    1359              
    1360              $C$DW$144       .dwtag  DW_TAG_enumerator
    1361                      .dwattr $C$DW$144, DW_AT_name("DRV8301_VdsLevel_0p109_V")
    1362                      .dwattr $C$DW$144, DW_AT_const_value(0x140)
    1363              
    1364              $C$DW$145       .dwtag  DW_TAG_enumerator
    1365                      .dwattr $C$DW$145, DW_AT_name("DRV8301_VdsLevel_0p123_V")
    1366                      .dwattr $C$DW$145, DW_AT_const_value(0x180)
    1367              
    1368              $C$DW$146       .dwtag  DW_TAG_enumerator
    1369                      .dwattr $C$DW$146, DW_AT_name("DRV8301_VdsLevel_0p138_V")
    1370                      .dwattr $C$DW$146, DW_AT_const_value(0x1c0)
    1371              
    1372              $C$DW$147       .dwtag  DW_TAG_enumerator
    1373                      .dwattr $C$DW$147, DW_AT_name("DRV8301_VdsLevel_0p155_V")
    1374                      .dwattr $C$DW$147, DW_AT_const_value(0x200)
    1375              
    1376              $C$DW$148       .dwtag  DW_TAG_enumerator
    1377                      .dwattr $C$DW$148, DW_AT_name("DRV8301_VdsLevel_0p175_V")
    1378                      .dwattr $C$DW$148, DW_AT_const_value(0x240)
    1379              
    1380              $C$DW$149       .dwtag  DW_TAG_enumerator
    1381                      .dwattr $C$DW$149, DW_AT_name("DRV8301_VdsLevel_0p197_V")
    1382                      .dwattr $C$DW$149, DW_AT_const_value(0x280)
    1383              
    1384              $C$DW$150       .dwtag  DW_TAG_enumerator
    1385                      .dwattr $C$DW$150, DW_AT_name("DRV8301_VdsLevel_0p222_V")
    1386                      .dwattr $C$DW$150, DW_AT_const_value(0x2c0)
    1387              
    1388              $C$DW$151       .dwtag  DW_TAG_enumerator
    1389                      .dwattr $C$DW$151, DW_AT_name("DRV8301_VdsLevel_0p250_V")
    1390                      .dwattr $C$DW$151, DW_AT_const_value(0x300)
    1391              
    1392              $C$DW$152       .dwtag  DW_TAG_enumerator
    1393                      .dwattr $C$DW$152, DW_AT_name("DRV8301_VdsLevel_0p282_V")
    1394                      .dwattr $C$DW$152, DW_AT_const_value(0x340)
    1395              
    1396              $C$DW$153       .dwtag  DW_TAG_enumerator
    1397                      .dwattr $C$DW$153, DW_AT_name("DRV8301_VdsLevel_0p317_V")
    1398                      .dwattr $C$DW$153, DW_AT_const_value(0x380)
    1399              
    1400              $C$DW$154       .dwtag  DW_TAG_enumerator
    1401                      .dwattr $C$DW$154, DW_AT_name("DRV8301_VdsLevel_0p358_V")
    1402                      .dwattr $C$DW$154, DW_AT_const_value(0x3c0)
    1403              
    1404              $C$DW$155       .dwtag  DW_TAG_enumerator
TMS320C2000 Assembler PC v15.12.3 Tue Nov 29 20:40:17 2016

Tools Copyright (c) 1996-2015 Texas Instruments Incorporated
C:\Users\Cameron\AppData\Local\Temp\0172010                          PAGE   29

    1405                      .dwattr $C$DW$155, DW_AT_name("DRV8301_VdsLevel_0p403_V")
    1406                      .dwattr $C$DW$155, DW_AT_const_value(0x400)
    1407              
    1408              $C$DW$156       .dwtag  DW_TAG_enumerator
    1409                      .dwattr $C$DW$156, DW_AT_name("DRV8301_VdsLevel_0p454_V")
    1410                      .dwattr $C$DW$156, DW_AT_const_value(0x440)
    1411              
    1412              $C$DW$157       .dwtag  DW_TAG_enumerator
    1413                      .dwattr $C$DW$157, DW_AT_name("DRV8301_VdsLevel_0p511_V")
    1414                      .dwattr $C$DW$157, DW_AT_const_value(0x480)
    1415              
    1416              $C$DW$158       .dwtag  DW_TAG_enumerator
    1417                      .dwattr $C$DW$158, DW_AT_name("DRV8301_VdsLevel_0p576_V")
    1418                      .dwattr $C$DW$158, DW_AT_const_value(0x4c0)
    1419              
    1420              $C$DW$159       .dwtag  DW_TAG_enumerator
    1421                      .dwattr $C$DW$159, DW_AT_name("DRV8301_VdsLevel_0p648_V")
    1422                      .dwattr $C$DW$159, DW_AT_const_value(0x500)
    1423              
    1424              $C$DW$160       .dwtag  DW_TAG_enumerator
    1425                      .dwattr $C$DW$160, DW_AT_name("DRV8301_VdsLevel_0p730_V")
    1426                      .dwattr $C$DW$160, DW_AT_const_value(0x540)
    1427              
    1428              $C$DW$161       .dwtag  DW_TAG_enumerator
    1429                      .dwattr $C$DW$161, DW_AT_name("DRV8301_VdsLevel_0p822_V")
    1430                      .dwattr $C$DW$161, DW_AT_const_value(0x580)
    1431              
    1432              $C$DW$162       .dwtag  DW_TAG_enumerator
    1433                      .dwattr $C$DW$162, DW_AT_name("DRV8301_VdsLevel_0p926_V")
    1434                      .dwattr $C$DW$162, DW_AT_const_value(0x5c0)
    1435              
    1436              $C$DW$163       .dwtag  DW_TAG_enumerator
    1437                      .dwattr $C$DW$163, DW_AT_name("DRV8301_VdsLevel_1p043_V")
    1438                      .dwattr $C$DW$163, DW_AT_const_value(0x600)
    1439              
    1440              $C$DW$164       .dwtag  DW_TAG_enumerator
    1441                      .dwattr $C$DW$164, DW_AT_name("DRV8301_VdsLevel_1p175_V")
    1442                      .dwattr $C$DW$164, DW_AT_const_value(0x640)
    1443              
    1444              $C$DW$165       .dwtag  DW_TAG_enumerator
    1445                      .dwattr $C$DW$165, DW_AT_name("DRV8301_VdsLevel_1p324_V")
    1446                      .dwattr $C$DW$165, DW_AT_const_value(0x680)
    1447              
    1448              $C$DW$166       .dwtag  DW_TAG_enumerator
    1449                      .dwattr $C$DW$166, DW_AT_name("DRV8301_VdsLevel_1p491_V")
    1450                      .dwattr $C$DW$166, DW_AT_const_value(0x6c0)
    1451              
    1452              $C$DW$167       .dwtag  DW_TAG_enumerator
    1453                      .dwattr $C$DW$167, DW_AT_name("DRV8301_VdsLevel_1p679_V")
    1454                      .dwattr $C$DW$167, DW_AT_const_value(0x700)
    1455              
    1456              $C$DW$168       .dwtag  DW_TAG_enumerator
    1457                      .dwattr $C$DW$168, DW_AT_name("DRV8301_VdsLevel_1p892_V")
    1458                      .dwattr $C$DW$168, DW_AT_const_value(0x740)
    1459              
TMS320C2000 Assembler PC v15.12.3 Tue Nov 29 20:40:17 2016

Tools Copyright (c) 1996-2015 Texas Instruments Incorporated
C:\Users\Cameron\AppData\Local\Temp\0172010                          PAGE   30

    1460              $C$DW$169       .dwtag  DW_TAG_enumerator
    1461                      .dwattr $C$DW$169, DW_AT_name("DRV8301_VdsLevel_2p131_V")
    1462                      .dwattr $C$DW$169, DW_AT_const_value(0x780)
    1463              
    1464              $C$DW$170       .dwtag  DW_TAG_enumerator
    1465                      .dwattr $C$DW$170, DW_AT_name("DRV8301_VdsLevel_2p400_V")
    1466                      .dwattr $C$DW$170, DW_AT_const_value(0x7c0)
    1467              
    1468                      .dwendtag $C$DW$T$53
    1469              
    1470              $C$DW$T$54      .dwtag  DW_TAG_typedef
    1471                      .dwattr $C$DW$T$54, DW_AT_name("DRV8301_VdsLevel_e")
    1472                      .dwattr $C$DW$T$54, DW_AT_type(*$C$DW$T$53)
    1473                      .dwattr $C$DW$T$54, DW_AT_language(DW_LANG_C)
    1474              
    1475              
    1476              $C$DW$T$56      .dwtag  DW_TAG_enumeration_type
    1477                      .dwattr $C$DW$T$56, DW_AT_byte_size(0x01)
    1478              $C$DW$171       .dwtag  DW_TAG_enumerator
    1479                      .dwattr $C$DW$171, DW_AT_name("DRV8301_OcTwMode_Both")
    1480                      .dwattr $C$DW$171, DW_AT_const_value(0x00)
    1481              
    1482              $C$DW$172       .dwtag  DW_TAG_enumerator
    1483                      .dwattr $C$DW$172, DW_AT_name("DRV8301_OcTwMode_OT_Only")
    1484                      .dwattr $C$DW$172, DW_AT_const_value(0x01)
    1485              
    1486              $C$DW$173       .dwtag  DW_TAG_enumerator
    1487                      .dwattr $C$DW$173, DW_AT_name("DRV8301_OcTwMode_OC_Only")
    1488                      .dwattr $C$DW$173, DW_AT_const_value(0x02)
    1489              
    1490                      .dwendtag $C$DW$T$56
    1491              
    1492              $C$DW$T$57      .dwtag  DW_TAG_typedef
    1493                      .dwattr $C$DW$T$57, DW_AT_name("DRV8301_OcTwMode_e")
    1494                      .dwattr $C$DW$T$57, DW_AT_type(*$C$DW$T$56)
    1495                      .dwattr $C$DW$T$57, DW_AT_language(DW_LANG_C)
    1496              
    1497              
    1498              $C$DW$T$58      .dwtag  DW_TAG_enumeration_type
    1499                      .dwattr $C$DW$T$58, DW_AT_byte_size(0x01)
    1500              $C$DW$174       .dwtag  DW_TAG_enumerator
    1501                      .dwattr $C$DW$174, DW_AT_name("DRV8301_ShuntAmpGain_10VpV")
    1502                      .dwattr $C$DW$174, DW_AT_const_value(0x00)
    1503              
    1504              $C$DW$175       .dwtag  DW_TAG_enumerator
    1505                      .dwattr $C$DW$175, DW_AT_name("DRV8301_ShuntAmpGain_20VpV")
    1506                      .dwattr $C$DW$175, DW_AT_const_value(0x04)
    1507              
    1508              $C$DW$176       .dwtag  DW_TAG_enumerator
    1509                      .dwattr $C$DW$176, DW_AT_name("DRV8301_ShuntAmpGain_40VpV")
    1510                      .dwattr $C$DW$176, DW_AT_const_value(0x08)
    1511              
    1512              $C$DW$177       .dwtag  DW_TAG_enumerator
    1513                      .dwattr $C$DW$177, DW_AT_name("DRV8301_ShuntAmpGain_80VpV")
    1514                      .dwattr $C$DW$177, DW_AT_const_value(0x0c)
TMS320C2000 Assembler PC v15.12.3 Tue Nov 29 20:40:17 2016

Tools Copyright (c) 1996-2015 Texas Instruments Incorporated
C:\Users\Cameron\AppData\Local\Temp\0172010                          PAGE   31

    1515              
    1516                      .dwendtag $C$DW$T$58
    1517              
    1518              $C$DW$T$59      .dwtag  DW_TAG_typedef
    1519                      .dwattr $C$DW$T$59, DW_AT_name("DRV8301_ShuntAmpGain_e")
    1520                      .dwattr $C$DW$T$59, DW_AT_type(*$C$DW$T$58)
    1521                      .dwattr $C$DW$T$59, DW_AT_language(DW_LANG_C)
    1522              
    1523              
    1524              $C$DW$T$60      .dwtag  DW_TAG_enumeration_type
    1525                      .dwattr $C$DW$T$60, DW_AT_byte_size(0x01)
    1526              $C$DW$178       .dwtag  DW_TAG_enumerator
    1527                      .dwattr $C$DW$178, DW_AT_name("DRV8301_DcCalMode_Ch1_Load")
    1528                      .dwattr $C$DW$178, DW_AT_const_value(0x00)
    1529              
    1530              $C$DW$179       .dwtag  DW_TAG_enumerator
    1531                      .dwattr $C$DW$179, DW_AT_name("DRV8301_DcCalMode_Ch1_NoLoad")
    1532                      .dwattr $C$DW$179, DW_AT_const_value(0x10)
    1533              
    1534              $C$DW$180       .dwtag  DW_TAG_enumerator
    1535                      .dwattr $C$DW$180, DW_AT_name("DRV8301_DcCalMode_Ch2_Load")
    1536                      .dwattr $C$DW$180, DW_AT_const_value(0x00)
    1537              
    1538              $C$DW$181       .dwtag  DW_TAG_enumerator
    1539                      .dwattr $C$DW$181, DW_AT_name("DRV8301_DcCalMode_Ch2_NoLoad")
    1540                      .dwattr $C$DW$181, DW_AT_const_value(0x20)
    1541              
    1542                      .dwendtag $C$DW$T$60
    1543              
    1544              $C$DW$T$61      .dwtag  DW_TAG_typedef
    1545                      .dwattr $C$DW$T$61, DW_AT_name("DRV8301_DcCalMode_e")
    1546                      .dwattr $C$DW$T$61, DW_AT_type(*$C$DW$T$60)
    1547                      .dwattr $C$DW$T$61, DW_AT_language(DW_LANG_C)
    1548              
    1549              
    1550              $C$DW$T$62      .dwtag  DW_TAG_enumeration_type
    1551                      .dwattr $C$DW$T$62, DW_AT_byte_size(0x01)
    1552              $C$DW$182       .dwtag  DW_TAG_enumerator
    1553                      .dwattr $C$DW$182, DW_AT_name("DRV8301_OcOffTimeMode_Normal")
    1554                      .dwattr $C$DW$182, DW_AT_const_value(0x00)
    1555              
    1556              $C$DW$183       .dwtag  DW_TAG_enumerator
    1557                      .dwattr $C$DW$183, DW_AT_name("DRV8301_OcOffTimeMode_Ctrl")
    1558                      .dwattr $C$DW$183, DW_AT_const_value(0x40)
    1559              
    1560                      .dwendtag $C$DW$T$62
    1561              
    1562              $C$DW$T$63      .dwtag  DW_TAG_typedef
    1563                      .dwattr $C$DW$T$63, DW_AT_name("DRV8301_OcOffTimeMode_e")
    1564                      .dwattr $C$DW$T$63, DW_AT_type(*$C$DW$T$62)
    1565                      .dwattr $C$DW$T$63, DW_AT_language(DW_LANG_C)
    1566              
    1567              
    1568              $C$DW$T$122     .dwtag  DW_TAG_enumeration_type
    1569                      .dwattr $C$DW$T$122, DW_AT_byte_size(0x01)
TMS320C2000 Assembler PC v15.12.3 Tue Nov 29 20:40:17 2016

Tools Copyright (c) 1996-2015 Texas Instruments Incorporated
C:\Users\Cameron\AppData\Local\Temp\0172010                          PAGE   32

    1570              $C$DW$184       .dwtag  DW_TAG_enumerator
    1571                      .dwattr $C$DW$184, DW_AT_name("CTRL_State_Error")
    1572                      .dwattr $C$DW$184, DW_AT_const_value(0x00)
    1573              
    1574              $C$DW$185       .dwtag  DW_TAG_enumerator
    1575                      .dwattr $C$DW$185, DW_AT_name("CTRL_State_Idle")
    1576                      .dwattr $C$DW$185, DW_AT_const_value(0x01)
    1577              
    1578              $C$DW$186       .dwtag  DW_TAG_enumerator
    1579                      .dwattr $C$DW$186, DW_AT_name("CTRL_State_OffLine")
    1580                      .dwattr $C$DW$186, DW_AT_const_value(0x02)
    1581              
    1582              $C$DW$187       .dwtag  DW_TAG_enumerator
    1583                      .dwattr $C$DW$187, DW_AT_name("CTRL_State_OnLine")
    1584                      .dwattr $C$DW$187, DW_AT_const_value(0x03)
    1585              
    1586              $C$DW$188       .dwtag  DW_TAG_enumerator
    1587                      .dwattr $C$DW$188, DW_AT_name("CTRL_numStates")
    1588                      .dwattr $C$DW$188, DW_AT_const_value(0x04)
    1589              
    1590                      .dwendtag $C$DW$T$122
    1591              
    1592              $C$DW$T$123     .dwtag  DW_TAG_typedef
    1593                      .dwattr $C$DW$T$123, DW_AT_name("CTRL_State_e")
    1594                      .dwattr $C$DW$T$123, DW_AT_type(*$C$DW$T$122)
    1595                      .dwattr $C$DW$T$123, DW_AT_language(DW_LANG_C)
    1596              
    1597              
    1598              $C$DW$T$124     .dwtag  DW_TAG_enumeration_type
    1599                      .dwattr $C$DW$T$124, DW_AT_byte_size(0x01)
    1600              $C$DW$189       .dwtag  DW_TAG_enumerator
    1601                      .dwattr $C$DW$189, DW_AT_name("EST_State_Error")
    1602                      .dwattr $C$DW$189, DW_AT_const_value(0x00)
    1603              
    1604              $C$DW$190       .dwtag  DW_TAG_enumerator
    1605                      .dwattr $C$DW$190, DW_AT_name("EST_State_Idle")
    1606                      .dwattr $C$DW$190, DW_AT_const_value(0x01)
    1607              
    1608              $C$DW$191       .dwtag  DW_TAG_enumerator
    1609                      .dwattr $C$DW$191, DW_AT_name("EST_State_RoverL")
    1610                      .dwattr $C$DW$191, DW_AT_const_value(0x02)
    1611              
    1612              $C$DW$192       .dwtag  DW_TAG_enumerator
    1613                      .dwattr $C$DW$192, DW_AT_name("EST_State_Rs")
    1614                      .dwattr $C$DW$192, DW_AT_const_value(0x03)
    1615              
    1616              $C$DW$193       .dwtag  DW_TAG_enumerator
    1617                      .dwattr $C$DW$193, DW_AT_name("EST_State_RampUp")
    1618                      .dwattr $C$DW$193, DW_AT_const_value(0x04)
    1619              
    1620              $C$DW$194       .dwtag  DW_TAG_enumerator
    1621                      .dwattr $C$DW$194, DW_AT_name("EST_State_IdRated")
    1622                      .dwattr $C$DW$194, DW_AT_const_value(0x05)
    1623              
    1624              $C$DW$195       .dwtag  DW_TAG_enumerator
TMS320C2000 Assembler PC v15.12.3 Tue Nov 29 20:40:17 2016

Tools Copyright (c) 1996-2015 Texas Instruments Incorporated
C:\Users\Cameron\AppData\Local\Temp\0172010                          PAGE   33

    1625                      .dwattr $C$DW$195, DW_AT_name("EST_State_RatedFlux_OL")
    1626                      .dwattr $C$DW$195, DW_AT_const_value(0x06)
    1627              
    1628              $C$DW$196       .dwtag  DW_TAG_enumerator
    1629                      .dwattr $C$DW$196, DW_AT_name("EST_State_RatedFlux")
    1630                      .dwattr $C$DW$196, DW_AT_const_value(0x07)
    1631              
    1632              $C$DW$197       .dwtag  DW_TAG_enumerator
    1633                      .dwattr $C$DW$197, DW_AT_name("EST_State_RampDown")
    1634                      .dwattr $C$DW$197, DW_AT_const_value(0x08)
    1635              
    1636              $C$DW$198       .dwtag  DW_TAG_enumerator
    1637                      .dwattr $C$DW$198, DW_AT_name("EST_State_LockRotor")
    1638                      .dwattr $C$DW$198, DW_AT_const_value(0x09)
    1639              
    1640              $C$DW$199       .dwtag  DW_TAG_enumerator
    1641                      .dwattr $C$DW$199, DW_AT_name("EST_State_Ls")
    1642                      .dwattr $C$DW$199, DW_AT_const_value(0x0a)
    1643              
    1644              $C$DW$200       .dwtag  DW_TAG_enumerator
    1645                      .dwattr $C$DW$200, DW_AT_name("EST_State_Rr")
    1646                      .dwattr $C$DW$200, DW_AT_const_value(0x0b)
    1647              
    1648              $C$DW$201       .dwtag  DW_TAG_enumerator
    1649                      .dwattr $C$DW$201, DW_AT_name("EST_State_MotorIdentified")
    1650                      .dwattr $C$DW$201, DW_AT_const_value(0x0c)
    1651              
    1652              $C$DW$202       .dwtag  DW_TAG_enumerator
    1653                      .dwattr $C$DW$202, DW_AT_name("EST_State_OnLine")
    1654                      .dwattr $C$DW$202, DW_AT_const_value(0x0d)
    1655              
    1656              $C$DW$203       .dwtag  DW_TAG_enumerator
    1657                      .dwattr $C$DW$203, DW_AT_name("EST_numStates")
    1658                      .dwattr $C$DW$203, DW_AT_const_value(0x0e)
    1659              
    1660                      .dwendtag $C$DW$T$124
    1661              
    1662              $C$DW$T$125     .dwtag  DW_TAG_typedef
    1663                      .dwattr $C$DW$T$125, DW_AT_name("EST_State_e")
    1664                      .dwattr $C$DW$T$125, DW_AT_type(*$C$DW$T$124)
    1665                      .dwattr $C$DW$T$125, DW_AT_language(DW_LANG_C)
    1666              
    1667              
    1668              $C$DW$T$126     .dwtag  DW_TAG_enumeration_type
    1669                      .dwattr $C$DW$T$126, DW_AT_byte_size(0x01)
    1670              $C$DW$204       .dwtag  DW_TAG_enumerator
    1671                      .dwattr $C$DW$204, DW_AT_name("USER_ErrorCode_NoError")
    1672                      .dwattr $C$DW$204, DW_AT_const_value(0x00)
    1673              
    1674              $C$DW$205       .dwtag  DW_TAG_enumerator
    1675                      .dwattr $C$DW$205, DW_AT_name("USER_ErrorCode_iqFullScaleCurrent_A_High")
    1676                      .dwattr $C$DW$205, DW_AT_const_value(0x01)
    1677              
    1678              $C$DW$206       .dwtag  DW_TAG_enumerator
    1679                      .dwattr $C$DW$206, DW_AT_name("USER_ErrorCode_iqFullScaleCurrent_A_Low")
TMS320C2000 Assembler PC v15.12.3 Tue Nov 29 20:40:17 2016

Tools Copyright (c) 1996-2015 Texas Instruments Incorporated
C:\Users\Cameron\AppData\Local\Temp\0172010                          PAGE   34

    1680                      .dwattr $C$DW$206, DW_AT_const_value(0x02)
    1681              
    1682              $C$DW$207       .dwtag  DW_TAG_enumerator
    1683                      .dwattr $C$DW$207, DW_AT_name("USER_ErrorCode_iqFullScaleVoltage_V_High")
    1684                      .dwattr $C$DW$207, DW_AT_const_value(0x03)
    1685              
    1686              $C$DW$208       .dwtag  DW_TAG_enumerator
    1687                      .dwattr $C$DW$208, DW_AT_name("USER_ErrorCode_iqFullScaleVoltage_V_Low")
    1688                      .dwattr $C$DW$208, DW_AT_const_value(0x04)
    1689              
    1690              $C$DW$209       .dwtag  DW_TAG_enumerator
    1691                      .dwattr $C$DW$209, DW_AT_name("USER_ErrorCode_iqFullScaleFreq_Hz_High")
    1692                      .dwattr $C$DW$209, DW_AT_const_value(0x05)
    1693              
    1694              $C$DW$210       .dwtag  DW_TAG_enumerator
    1695                      .dwattr $C$DW$210, DW_AT_name("USER_ErrorCode_iqFullScaleFreq_Hz_Low")
    1696                      .dwattr $C$DW$210, DW_AT_const_value(0x06)
    1697              
    1698              $C$DW$211       .dwtag  DW_TAG_enumerator
    1699                      .dwattr $C$DW$211, DW_AT_name("USER_ErrorCode_numPwmTicksPerIsrTick_High")
    1700                      .dwattr $C$DW$211, DW_AT_const_value(0x07)
    1701              
    1702              $C$DW$212       .dwtag  DW_TAG_enumerator
    1703                      .dwattr $C$DW$212, DW_AT_name("USER_ErrorCode_numPwmTicksPerIsrTick_Low")
    1704                      .dwattr $C$DW$212, DW_AT_const_value(0x08)
    1705              
    1706              $C$DW$213       .dwtag  DW_TAG_enumerator
    1707                      .dwattr $C$DW$213, DW_AT_name("USER_ErrorCode_numIsrTicksPerCtrlTick_High")
    1708                      .dwattr $C$DW$213, DW_AT_const_value(0x09)
    1709              
    1710              $C$DW$214       .dwtag  DW_TAG_enumerator
    1711                      .dwattr $C$DW$214, DW_AT_name("USER_ErrorCode_numIsrTicksPerCtrlTick_Low")
    1712                      .dwattr $C$DW$214, DW_AT_const_value(0x0a)
    1713              
    1714              $C$DW$215       .dwtag  DW_TAG_enumerator
    1715                      .dwattr $C$DW$215, DW_AT_name("USER_ErrorCode_numCtrlTicksPerCurrentTick_High")
    1716                      .dwattr $C$DW$215, DW_AT_const_value(0x0b)
    1717              
    1718              $C$DW$216       .dwtag  DW_TAG_enumerator
    1719                      .dwattr $C$DW$216, DW_AT_name("USER_ErrorCode_numCtrlTicksPerCurrentTick_Low")
    1720                      .dwattr $C$DW$216, DW_AT_const_value(0x0c)
    1721              
    1722              $C$DW$217       .dwtag  DW_TAG_enumerator
    1723                      .dwattr $C$DW$217, DW_AT_name("USER_ErrorCode_numCtrlTicksPerEstTick_High")
    1724                      .dwattr $C$DW$217, DW_AT_const_value(0x0d)
    1725              
    1726              $C$DW$218       .dwtag  DW_TAG_enumerator
    1727                      .dwattr $C$DW$218, DW_AT_name("USER_ErrorCode_numCtrlTicksPerEstTick_Low")
    1728                      .dwattr $C$DW$218, DW_AT_const_value(0x0e)
    1729              
    1730              $C$DW$219       .dwtag  DW_TAG_enumerator
    1731                      .dwattr $C$DW$219, DW_AT_name("USER_ErrorCode_numCtrlTicksPerSpeedTick_High")
    1732                      .dwattr $C$DW$219, DW_AT_const_value(0x0f)
    1733              
    1734              $C$DW$220       .dwtag  DW_TAG_enumerator
TMS320C2000 Assembler PC v15.12.3 Tue Nov 29 20:40:17 2016

Tools Copyright (c) 1996-2015 Texas Instruments Incorporated
C:\Users\Cameron\AppData\Local\Temp\0172010                          PAGE   35

    1735                      .dwattr $C$DW$220, DW_AT_name("USER_ErrorCode_numCtrlTicksPerSpeedTick_Low")
    1736                      .dwattr $C$DW$220, DW_AT_const_value(0x10)
    1737              
    1738              $C$DW$221       .dwtag  DW_TAG_enumerator
    1739                      .dwattr $C$DW$221, DW_AT_name("USER_ErrorCode_numCtrlTicksPerTrajTick_High")
    1740                      .dwattr $C$DW$221, DW_AT_const_value(0x11)
    1741              
    1742              $C$DW$222       .dwtag  DW_TAG_enumerator
    1743                      .dwattr $C$DW$222, DW_AT_name("USER_ErrorCode_numCtrlTicksPerTrajTick_Low")
    1744                      .dwattr $C$DW$222, DW_AT_const_value(0x12)
    1745              
    1746              $C$DW$223       .dwtag  DW_TAG_enumerator
    1747                      .dwattr $C$DW$223, DW_AT_name("USER_ErrorCode_numCurrentSensors_High")
    1748                      .dwattr $C$DW$223, DW_AT_const_value(0x13)
    1749              
    1750              $C$DW$224       .dwtag  DW_TAG_enumerator
    1751                      .dwattr $C$DW$224, DW_AT_name("USER_ErrorCode_numCurrentSensors_Low")
    1752                      .dwattr $C$DW$224, DW_AT_const_value(0x14)
    1753              
    1754              $C$DW$225       .dwtag  DW_TAG_enumerator
    1755                      .dwattr $C$DW$225, DW_AT_name("USER_ErrorCode_numVoltageSensors_High")
    1756                      .dwattr $C$DW$225, DW_AT_const_value(0x15)
    1757              
    1758              $C$DW$226       .dwtag  DW_TAG_enumerator
    1759                      .dwattr $C$DW$226, DW_AT_name("USER_ErrorCode_numVoltageSensors_Low")
    1760                      .dwattr $C$DW$226, DW_AT_const_value(0x16)
    1761              
    1762              $C$DW$227       .dwtag  DW_TAG_enumerator
    1763                      .dwattr $C$DW$227, DW_AT_name("USER_ErrorCode_offsetPole_rps_High")
    1764                      .dwattr $C$DW$227, DW_AT_const_value(0x17)
    1765              
    1766              $C$DW$228       .dwtag  DW_TAG_enumerator
    1767                      .dwattr $C$DW$228, DW_AT_name("USER_ErrorCode_offsetPole_rps_Low")
    1768                      .dwattr $C$DW$228, DW_AT_const_value(0x18)
    1769              
    1770              $C$DW$229       .dwtag  DW_TAG_enumerator
    1771                      .dwattr $C$DW$229, DW_AT_name("USER_ErrorCode_fluxPole_rps_High")
    1772                      .dwattr $C$DW$229, DW_AT_const_value(0x19)
    1773              
    1774              $C$DW$230       .dwtag  DW_TAG_enumerator
    1775                      .dwattr $C$DW$230, DW_AT_name("USER_ErrorCode_fluxPole_rps_Low")
    1776                      .dwattr $C$DW$230, DW_AT_const_value(0x1a)
    1777              
    1778              $C$DW$231       .dwtag  DW_TAG_enumerator
    1779                      .dwattr $C$DW$231, DW_AT_name("USER_ErrorCode_zeroSpeedLimit_High")
    1780                      .dwattr $C$DW$231, DW_AT_const_value(0x1b)
    1781              
    1782              $C$DW$232       .dwtag  DW_TAG_enumerator
    1783                      .dwattr $C$DW$232, DW_AT_name("USER_ErrorCode_zeroSpeedLimit_Low")
    1784                      .dwattr $C$DW$232, DW_AT_const_value(0x1c)
    1785              
    1786              $C$DW$233       .dwtag  DW_TAG_enumerator
    1787                      .dwattr $C$DW$233, DW_AT_name("USER_ErrorCode_forceAngleFreq_Hz_High")
    1788                      .dwattr $C$DW$233, DW_AT_const_value(0x1d)
    1789              
TMS320C2000 Assembler PC v15.12.3 Tue Nov 29 20:40:17 2016

Tools Copyright (c) 1996-2015 Texas Instruments Incorporated
C:\Users\Cameron\AppData\Local\Temp\0172010                          PAGE   36

    1790              $C$DW$234       .dwtag  DW_TAG_enumerator
    1791                      .dwattr $C$DW$234, DW_AT_name("USER_ErrorCode_forceAngleFreq_Hz_Low")
    1792                      .dwattr $C$DW$234, DW_AT_const_value(0x1e)
    1793              
    1794              $C$DW$235       .dwtag  DW_TAG_enumerator
    1795                      .dwattr $C$DW$235, DW_AT_name("USER_ErrorCode_maxAccel_Hzps_High")
    1796                      .dwattr $C$DW$235, DW_AT_const_value(0x1f)
    1797              
    1798              $C$DW$236       .dwtag  DW_TAG_enumerator
    1799                      .dwattr $C$DW$236, DW_AT_name("USER_ErrorCode_maxAccel_Hzps_Low")
    1800                      .dwattr $C$DW$236, DW_AT_const_value(0x20)
    1801              
    1802              $C$DW$237       .dwtag  DW_TAG_enumerator
    1803                      .dwattr $C$DW$237, DW_AT_name("USER_ErrorCode_maxAccel_est_Hzps_High")
    1804                      .dwattr $C$DW$237, DW_AT_const_value(0x21)
    1805              
    1806              $C$DW$238       .dwtag  DW_TAG_enumerator
    1807                      .dwattr $C$DW$238, DW_AT_name("USER_ErrorCode_maxAccel_est_Hzps_Low")
    1808                      .dwattr $C$DW$238, DW_AT_const_value(0x22)
    1809              
    1810              $C$DW$239       .dwtag  DW_TAG_enumerator
    1811                      .dwattr $C$DW$239, DW_AT_name("USER_ErrorCode_directionPole_rps_High")
    1812                      .dwattr $C$DW$239, DW_AT_const_value(0x23)
    1813              
    1814              $C$DW$240       .dwtag  DW_TAG_enumerator
    1815                      .dwattr $C$DW$240, DW_AT_name("USER_ErrorCode_directionPole_rps_Low")
    1816                      .dwattr $C$DW$240, DW_AT_const_value(0x24)
    1817              
    1818              $C$DW$241       .dwtag  DW_TAG_enumerator
    1819                      .dwattr $C$DW$241, DW_AT_name("USER_ErrorCode_speedPole_rps_High")
    1820                      .dwattr $C$DW$241, DW_AT_const_value(0x25)
    1821              
    1822              $C$DW$242       .dwtag  DW_TAG_enumerator
    1823                      .dwattr $C$DW$242, DW_AT_name("USER_ErrorCode_speedPole_rps_Low")
    1824                      .dwattr $C$DW$242, DW_AT_const_value(0x26)
    1825              
    1826              $C$DW$243       .dwtag  DW_TAG_enumerator
    1827                      .dwattr $C$DW$243, DW_AT_name("USER_ErrorCode_dcBusPole_rps_High")
    1828                      .dwattr $C$DW$243, DW_AT_const_value(0x27)
    1829              
    1830              $C$DW$244       .dwtag  DW_TAG_enumerator
    1831                      .dwattr $C$DW$244, DW_AT_name("USER_ErrorCode_dcBusPole_rps_Low")
    1832                      .dwattr $C$DW$244, DW_AT_const_value(0x28)
    1833              
    1834              $C$DW$245       .dwtag  DW_TAG_enumerator
    1835                      .dwattr $C$DW$245, DW_AT_name("USER_ErrorCode_fluxFraction_High")
    1836                      .dwattr $C$DW$245, DW_AT_const_value(0x29)
    1837              
    1838              $C$DW$246       .dwtag  DW_TAG_enumerator
    1839                      .dwattr $C$DW$246, DW_AT_name("USER_ErrorCode_fluxFraction_Low")
    1840                      .dwattr $C$DW$246, DW_AT_const_value(0x2a)
    1841              
    1842              $C$DW$247       .dwtag  DW_TAG_enumerator
    1843                      .dwattr $C$DW$247, DW_AT_name("USER_ErrorCode_indEst_speedMaxFraction_High")
    1844                      .dwattr $C$DW$247, DW_AT_const_value(0x2b)
TMS320C2000 Assembler PC v15.12.3 Tue Nov 29 20:40:17 2016

Tools Copyright (c) 1996-2015 Texas Instruments Incorporated
C:\Users\Cameron\AppData\Local\Temp\0172010                          PAGE   37

    1845              
    1846              $C$DW$248       .dwtag  DW_TAG_enumerator
    1847                      .dwattr $C$DW$248, DW_AT_name("USER_ErrorCode_indEst_speedMaxFraction_Low")
    1848                      .dwattr $C$DW$248, DW_AT_const_value(0x2c)
    1849              
    1850              $C$DW$249       .dwtag  DW_TAG_enumerator
    1851                      .dwattr $C$DW$249, DW_AT_name("USER_ErrorCode_powerWarpGain_High")
    1852                      .dwattr $C$DW$249, DW_AT_const_value(0x2d)
    1853              
    1854              $C$DW$250       .dwtag  DW_TAG_enumerator
    1855                      .dwattr $C$DW$250, DW_AT_name("USER_ErrorCode_powerWarpGain_Low")
    1856                      .dwattr $C$DW$250, DW_AT_const_value(0x2e)
    1857              
    1858              $C$DW$251       .dwtag  DW_TAG_enumerator
    1859                      .dwattr $C$DW$251, DW_AT_name("USER_ErrorCode_systemFreq_MHz_High")
    1860                      .dwattr $C$DW$251, DW_AT_const_value(0x2f)
    1861              
    1862              $C$DW$252       .dwtag  DW_TAG_enumerator
    1863                      .dwattr $C$DW$252, DW_AT_name("USER_ErrorCode_systemFreq_MHz_Low")
    1864                      .dwattr $C$DW$252, DW_AT_const_value(0x30)
    1865              
    1866              $C$DW$253       .dwtag  DW_TAG_enumerator
    1867                      .dwattr $C$DW$253, DW_AT_name("USER_ErrorCode_pwmFreq_kHz_High")
    1868                      .dwattr $C$DW$253, DW_AT_const_value(0x31)
    1869              
    1870              $C$DW$254       .dwtag  DW_TAG_enumerator
    1871                      .dwattr $C$DW$254, DW_AT_name("USER_ErrorCode_pwmFreq_kHz_Low")
    1872                      .dwattr $C$DW$254, DW_AT_const_value(0x32)
    1873              
    1874              $C$DW$255       .dwtag  DW_TAG_enumerator
    1875                      .dwattr $C$DW$255, DW_AT_name("USER_ErrorCode_voltage_sf_High")
    1876                      .dwattr $C$DW$255, DW_AT_const_value(0x33)
    1877              
    1878              $C$DW$256       .dwtag  DW_TAG_enumerator
    1879                      .dwattr $C$DW$256, DW_AT_name("USER_ErrorCode_voltage_sf_Low")
    1880                      .dwattr $C$DW$256, DW_AT_const_value(0x34)
    1881              
    1882              $C$DW$257       .dwtag  DW_TAG_enumerator
    1883                      .dwattr $C$DW$257, DW_AT_name("USER_ErrorCode_current_sf_High")
    1884                      .dwattr $C$DW$257, DW_AT_const_value(0x35)
    1885              
    1886              $C$DW$258       .dwtag  DW_TAG_enumerator
    1887                      .dwattr $C$DW$258, DW_AT_name("USER_ErrorCode_current_sf_Low")
    1888                      .dwattr $C$DW$258, DW_AT_const_value(0x36)
    1889              
    1890              $C$DW$259       .dwtag  DW_TAG_enumerator
    1891                      .dwattr $C$DW$259, DW_AT_name("USER_ErrorCode_voltageFilterPole_Hz_High")
    1892                      .dwattr $C$DW$259, DW_AT_const_value(0x37)
    1893              
    1894              $C$DW$260       .dwtag  DW_TAG_enumerator
    1895                      .dwattr $C$DW$260, DW_AT_name("USER_ErrorCode_voltageFilterPole_Hz_Low")
    1896                      .dwattr $C$DW$260, DW_AT_const_value(0x38)
    1897              
    1898              $C$DW$261       .dwtag  DW_TAG_enumerator
    1899                      .dwattr $C$DW$261, DW_AT_name("USER_ErrorCode_maxVsMag_pu_High")
TMS320C2000 Assembler PC v15.12.3 Tue Nov 29 20:40:17 2016

Tools Copyright (c) 1996-2015 Texas Instruments Incorporated
C:\Users\Cameron\AppData\Local\Temp\0172010                          PAGE   38

    1900                      .dwattr $C$DW$261, DW_AT_const_value(0x39)
    1901              
    1902              $C$DW$262       .dwtag  DW_TAG_enumerator
    1903                      .dwattr $C$DW$262, DW_AT_name("USER_ErrorCode_maxVsMag_pu_Low")
    1904                      .dwattr $C$DW$262, DW_AT_const_value(0x3a)
    1905              
    1906              $C$DW$263       .dwtag  DW_TAG_enumerator
    1907                      .dwattr $C$DW$263, DW_AT_name("USER_ErrorCode_estKappa_High")
    1908                      .dwattr $C$DW$263, DW_AT_const_value(0x3b)
    1909              
    1910              $C$DW$264       .dwtag  DW_TAG_enumerator
    1911                      .dwattr $C$DW$264, DW_AT_name("USER_ErrorCode_estKappa_Low")
    1912                      .dwattr $C$DW$264, DW_AT_const_value(0x3c)
    1913              
    1914              $C$DW$265       .dwtag  DW_TAG_enumerator
    1915                      .dwattr $C$DW$265, DW_AT_name("USER_ErrorCode_motor_type_Unknown")
    1916                      .dwattr $C$DW$265, DW_AT_const_value(0x3d)
    1917              
    1918              $C$DW$266       .dwtag  DW_TAG_enumerator
    1919                      .dwattr $C$DW$266, DW_AT_name("USER_ErrorCode_motor_numPolePairs_High")
    1920                      .dwattr $C$DW$266, DW_AT_const_value(0x3e)
    1921              
    1922              $C$DW$267       .dwtag  DW_TAG_enumerator
    1923                      .dwattr $C$DW$267, DW_AT_name("USER_ErrorCode_motor_numPolePairs_Low")
    1924                      .dwattr $C$DW$267, DW_AT_const_value(0x3f)
    1925              
    1926              $C$DW$268       .dwtag  DW_TAG_enumerator
    1927                      .dwattr $C$DW$268, DW_AT_name("USER_ErrorCode_motor_ratedFlux_High")
    1928                      .dwattr $C$DW$268, DW_AT_const_value(0x40)
    1929              
    1930              $C$DW$269       .dwtag  DW_TAG_enumerator
    1931                      .dwattr $C$DW$269, DW_AT_name("USER_ErrorCode_motor_ratedFlux_Low")
    1932                      .dwattr $C$DW$269, DW_AT_const_value(0x41)
    1933              
    1934              $C$DW$270       .dwtag  DW_TAG_enumerator
    1935                      .dwattr $C$DW$270, DW_AT_name("USER_ErrorCode_motor_Rr_High")
    1936                      .dwattr $C$DW$270, DW_AT_const_value(0x42)
    1937              
    1938              $C$DW$271       .dwtag  DW_TAG_enumerator
    1939                      .dwattr $C$DW$271, DW_AT_name("USER_ErrorCode_motor_Rr_Low")
    1940                      .dwattr $C$DW$271, DW_AT_const_value(0x43)
    1941              
    1942              $C$DW$272       .dwtag  DW_TAG_enumerator
    1943                      .dwattr $C$DW$272, DW_AT_name("USER_ErrorCode_motor_Rs_High")
    1944                      .dwattr $C$DW$272, DW_AT_const_value(0x44)
    1945              
    1946              $C$DW$273       .dwtag  DW_TAG_enumerator
    1947                      .dwattr $C$DW$273, DW_AT_name("USER_ErrorCode_motor_Rs_Low")
    1948                      .dwattr $C$DW$273, DW_AT_const_value(0x45)
    1949              
    1950              $C$DW$274       .dwtag  DW_TAG_enumerator
    1951                      .dwattr $C$DW$274, DW_AT_name("USER_ErrorCode_motor_Ls_d_High")
    1952                      .dwattr $C$DW$274, DW_AT_const_value(0x46)
    1953              
    1954              $C$DW$275       .dwtag  DW_TAG_enumerator
TMS320C2000 Assembler PC v15.12.3 Tue Nov 29 20:40:17 2016

Tools Copyright (c) 1996-2015 Texas Instruments Incorporated
C:\Users\Cameron\AppData\Local\Temp\0172010                          PAGE   39

    1955                      .dwattr $C$DW$275, DW_AT_name("USER_ErrorCode_motor_Ls_d_Low")
    1956                      .dwattr $C$DW$275, DW_AT_const_value(0x47)
    1957              
    1958              $C$DW$276       .dwtag  DW_TAG_enumerator
    1959                      .dwattr $C$DW$276, DW_AT_name("USER_ErrorCode_motor_Ls_q_High")
    1960                      .dwattr $C$DW$276, DW_AT_const_value(0x48)
    1961              
    1962              $C$DW$277       .dwtag  DW_TAG_enumerator
    1963                      .dwattr $C$DW$277, DW_AT_name("USER_ErrorCode_motor_Ls_q_Low")
    1964                      .dwattr $C$DW$277, DW_AT_const_value(0x49)
    1965              
    1966              $C$DW$278       .dwtag  DW_TAG_enumerator
    1967                      .dwattr $C$DW$278, DW_AT_name("USER_ErrorCode_maxCurrent_High")
    1968                      .dwattr $C$DW$278, DW_AT_const_value(0x4a)
    1969              
    1970              $C$DW$279       .dwtag  DW_TAG_enumerator
    1971                      .dwattr $C$DW$279, DW_AT_name("USER_ErrorCode_maxCurrent_Low")
    1972                      .dwattr $C$DW$279, DW_AT_const_value(0x4b)
    1973              
    1974              $C$DW$280       .dwtag  DW_TAG_enumerator
    1975                      .dwattr $C$DW$280, DW_AT_name("USER_ErrorCode_maxCurrent_resEst_High")
    1976                      .dwattr $C$DW$280, DW_AT_const_value(0x4c)
    1977              
    1978              $C$DW$281       .dwtag  DW_TAG_enumerator
    1979                      .dwattr $C$DW$281, DW_AT_name("USER_ErrorCode_maxCurrent_resEst_Low")
    1980                      .dwattr $C$DW$281, DW_AT_const_value(0x4d)
    1981              
    1982              $C$DW$282       .dwtag  DW_TAG_enumerator
    1983                      .dwattr $C$DW$282, DW_AT_name("USER_ErrorCode_maxCurrent_indEst_High")
    1984                      .dwattr $C$DW$282, DW_AT_const_value(0x4e)
    1985              
    1986              $C$DW$283       .dwtag  DW_TAG_enumerator
    1987                      .dwattr $C$DW$283, DW_AT_name("USER_ErrorCode_maxCurrent_indEst_Low")
    1988                      .dwattr $C$DW$283, DW_AT_const_value(0x4f)
    1989              
    1990              $C$DW$284       .dwtag  DW_TAG_enumerator
    1991                      .dwattr $C$DW$284, DW_AT_name("USER_ErrorCode_maxCurrentSlope_High")
    1992                      .dwattr $C$DW$284, DW_AT_const_value(0x50)
    1993              
    1994              $C$DW$285       .dwtag  DW_TAG_enumerator
    1995                      .dwattr $C$DW$285, DW_AT_name("USER_ErrorCode_maxCurrentSlope_Low")
    1996                      .dwattr $C$DW$285, DW_AT_const_value(0x51)
    1997              
    1998              $C$DW$286       .dwtag  DW_TAG_enumerator
    1999                      .dwattr $C$DW$286, DW_AT_name("USER_ErrorCode_maxCurrentSlope_powerWarp_High")
    2000                      .dwattr $C$DW$286, DW_AT_const_value(0x52)
    2001              
    2002              $C$DW$287       .dwtag  DW_TAG_enumerator
    2003                      .dwattr $C$DW$287, DW_AT_name("USER_ErrorCode_maxCurrentSlope_powerWarp_Low")
    2004                      .dwattr $C$DW$287, DW_AT_const_value(0x53)
    2005              
    2006              $C$DW$288       .dwtag  DW_TAG_enumerator
    2007                      .dwattr $C$DW$288, DW_AT_name("USER_ErrorCode_IdRated_High")
    2008                      .dwattr $C$DW$288, DW_AT_const_value(0x54)
    2009              
TMS320C2000 Assembler PC v15.12.3 Tue Nov 29 20:40:17 2016

Tools Copyright (c) 1996-2015 Texas Instruments Incorporated
C:\Users\Cameron\AppData\Local\Temp\0172010                          PAGE   40

    2010              $C$DW$289       .dwtag  DW_TAG_enumerator
    2011                      .dwattr $C$DW$289, DW_AT_name("USER_ErrorCode_IdRated_Low")
    2012                      .dwattr $C$DW$289, DW_AT_const_value(0x55)
    2013              
    2014              $C$DW$290       .dwtag  DW_TAG_enumerator
    2015                      .dwattr $C$DW$290, DW_AT_name("USER_ErrorCode_IdRatedFraction_indEst_High")
    2016                      .dwattr $C$DW$290, DW_AT_const_value(0x56)
    2017              
    2018              $C$DW$291       .dwtag  DW_TAG_enumerator
    2019                      .dwattr $C$DW$291, DW_AT_name("USER_ErrorCode_IdRatedFraction_indEst_Low")
    2020                      .dwattr $C$DW$291, DW_AT_const_value(0x57)
    2021              
    2022              $C$DW$292       .dwtag  DW_TAG_enumerator
    2023                      .dwattr $C$DW$292, DW_AT_name("USER_ErrorCode_IdRatedFraction_ratedFlux_High")
    2024                      .dwattr $C$DW$292, DW_AT_const_value(0x58)
    2025              
    2026              $C$DW$293       .dwtag  DW_TAG_enumerator
    2027                      .dwattr $C$DW$293, DW_AT_name("USER_ErrorCode_IdRatedFraction_ratedFlux_Low")
    2028                      .dwattr $C$DW$293, DW_AT_const_value(0x59)
    2029              
    2030              $C$DW$294       .dwtag  DW_TAG_enumerator
    2031                      .dwattr $C$DW$294, DW_AT_name("USER_ErrorCode_IdRated_delta_High")
    2032                      .dwattr $C$DW$294, DW_AT_const_value(0x5a)
    2033              
    2034              $C$DW$295       .dwtag  DW_TAG_enumerator
    2035                      .dwattr $C$DW$295, DW_AT_name("USER_ErrorCode_IdRated_delta_Low")
    2036                      .dwattr $C$DW$295, DW_AT_const_value(0x5b)
    2037              
    2038              $C$DW$296       .dwtag  DW_TAG_enumerator
    2039                      .dwattr $C$DW$296, DW_AT_name("USER_ErrorCode_fluxEstFreq_Hz_High")
    2040                      .dwattr $C$DW$296, DW_AT_const_value(0x5c)
    2041              
    2042              $C$DW$297       .dwtag  DW_TAG_enumerator
    2043                      .dwattr $C$DW$297, DW_AT_name("USER_ErrorCode_fluxEstFreq_Hz_Low")
    2044                      .dwattr $C$DW$297, DW_AT_const_value(0x5d)
    2045              
    2046              $C$DW$298       .dwtag  DW_TAG_enumerator
    2047                      .dwattr $C$DW$298, DW_AT_name("USER_ErrorCode_ctrlFreq_Hz_High")
    2048                      .dwattr $C$DW$298, DW_AT_const_value(0x5e)
    2049              
    2050              $C$DW$299       .dwtag  DW_TAG_enumerator
    2051                      .dwattr $C$DW$299, DW_AT_name("USER_ErrorCode_ctrlFreq_Hz_Low")
    2052                      .dwattr $C$DW$299, DW_AT_const_value(0x5f)
    2053              
    2054              $C$DW$300       .dwtag  DW_TAG_enumerator
    2055                      .dwattr $C$DW$300, DW_AT_name("USER_ErrorCode_estFreq_Hz_High")
    2056                      .dwattr $C$DW$300, DW_AT_const_value(0x60)
    2057              
    2058              $C$DW$301       .dwtag  DW_TAG_enumerator
    2059                      .dwattr $C$DW$301, DW_AT_name("USER_ErrorCode_estFreq_Hz_Low")
    2060                      .dwattr $C$DW$301, DW_AT_const_value(0x61)
    2061              
    2062              $C$DW$302       .dwtag  DW_TAG_enumerator
    2063                      .dwattr $C$DW$302, DW_AT_name("USER_ErrorCode_RoverL_estFreq_Hz_High")
    2064                      .dwattr $C$DW$302, DW_AT_const_value(0x62)
TMS320C2000 Assembler PC v15.12.3 Tue Nov 29 20:40:17 2016

Tools Copyright (c) 1996-2015 Texas Instruments Incorporated
C:\Users\Cameron\AppData\Local\Temp\0172010                          PAGE   41

    2065              
    2066              $C$DW$303       .dwtag  DW_TAG_enumerator
    2067                      .dwattr $C$DW$303, DW_AT_name("USER_ErrorCode_RoverL_estFreq_Hz_Low")
    2068                      .dwattr $C$DW$303, DW_AT_const_value(0x63)
    2069              
    2070              $C$DW$304       .dwtag  DW_TAG_enumerator
    2071                      .dwattr $C$DW$304, DW_AT_name("USER_ErrorCode_trajFreq_Hz_High")
    2072                      .dwattr $C$DW$304, DW_AT_const_value(0x64)
    2073              
    2074              $C$DW$305       .dwtag  DW_TAG_enumerator
    2075                      .dwattr $C$DW$305, DW_AT_name("USER_ErrorCode_trajFreq_Hz_Low")
    2076                      .dwattr $C$DW$305, DW_AT_const_value(0x65)
    2077              
    2078              $C$DW$306       .dwtag  DW_TAG_enumerator
    2079                      .dwattr $C$DW$306, DW_AT_name("USER_ErrorCode_ctrlPeriod_sec_High")
    2080                      .dwattr $C$DW$306, DW_AT_const_value(0x66)
    2081              
    2082              $C$DW$307       .dwtag  DW_TAG_enumerator
    2083                      .dwattr $C$DW$307, DW_AT_name("USER_ErrorCode_ctrlPeriod_sec_Low")
    2084                      .dwattr $C$DW$307, DW_AT_const_value(0x67)
    2085              
    2086              $C$DW$308       .dwtag  DW_TAG_enumerator
    2087                      .dwattr $C$DW$308, DW_AT_name("USER_ErrorCode_maxNegativeIdCurrent_a_High")
    2088                      .dwattr $C$DW$308, DW_AT_const_value(0x68)
    2089              
    2090              $C$DW$309       .dwtag  DW_TAG_enumerator
    2091                      .dwattr $C$DW$309, DW_AT_name("USER_ErrorCode_maxNegativeIdCurrent_a_Low")
    2092                      .dwattr $C$DW$309, DW_AT_const_value(0x69)
    2093              
    2094              $C$DW$310       .dwtag  DW_TAG_enumerator
    2095                      .dwattr $C$DW$310, DW_AT_name("USER_numErrorCodes")
    2096                      .dwattr $C$DW$310, DW_AT_const_value(0x6a)
    2097              
    2098                      .dwendtag $C$DW$T$126
    2099              
    2100              $C$DW$T$127     .dwtag  DW_TAG_typedef
    2101                      .dwattr $C$DW$T$127, DW_AT_name("USER_ErrorCode_e")
    2102                      .dwattr $C$DW$T$127, DW_AT_type(*$C$DW$T$126)
    2103                      .dwattr $C$DW$T$127, DW_AT_language(DW_LANG_C)
    2104              
    2105              
    2106              $C$DW$T$155     .dwtag  DW_TAG_enumeration_type
    2107                      .dwattr $C$DW$T$155, DW_AT_byte_size(0x01)
    2108              $C$DW$311       .dwtag  DW_TAG_enumerator
    2109                      .dwattr $C$DW$311, DW_AT_name("MOTOR_Type_Induction")
    2110                      .dwattr $C$DW$311, DW_AT_const_value(0x00)
    2111              
    2112              $C$DW$312       .dwtag  DW_TAG_enumerator
    2113                      .dwattr $C$DW$312, DW_AT_name("MOTOR_Type_Pm")
    2114                      .dwattr $C$DW$312, DW_AT_const_value(0x01)
    2115              
    2116                      .dwendtag $C$DW$T$155
    2117              
    2118              $C$DW$T$156     .dwtag  DW_TAG_typedef
    2119                      .dwattr $C$DW$T$156, DW_AT_name("MOTOR_Type_e")
TMS320C2000 Assembler PC v15.12.3 Tue Nov 29 20:40:17 2016

Tools Copyright (c) 1996-2015 Texas Instruments Incorporated
C:\Users\Cameron\AppData\Local\Temp\0172010                          PAGE   42

    2120                      .dwattr $C$DW$T$156, DW_AT_type(*$C$DW$T$155)
    2121                      .dwattr $C$DW$T$156, DW_AT_language(DW_LANG_C)
    2122              
    2123              
    2124              $C$DW$T$170     .dwtag  DW_TAG_enumeration_type
    2125                      .dwattr $C$DW$T$170, DW_AT_byte_size(0x01)
    2126              $C$DW$313       .dwtag  DW_TAG_enumerator
    2127                      .dwattr $C$DW$313, DW_AT_name("ADC_IntNumber_1")
    2128                      .dwattr $C$DW$313, DW_AT_const_value(0x00)
    2129              
    2130              $C$DW$314       .dwtag  DW_TAG_enumerator
    2131                      .dwattr $C$DW$314, DW_AT_name("ADC_IntNumber_2")
    2132                      .dwattr $C$DW$314, DW_AT_const_value(0x01)
    2133              
    2134              $C$DW$315       .dwtag  DW_TAG_enumerator
    2135                      .dwattr $C$DW$315, DW_AT_name("ADC_IntNumber_3")
    2136                      .dwattr $C$DW$315, DW_AT_const_value(0x02)
    2137              
    2138              $C$DW$316       .dwtag  DW_TAG_enumerator
    2139                      .dwattr $C$DW$316, DW_AT_name("ADC_IntNumber_4")
    2140                      .dwattr $C$DW$316, DW_AT_const_value(0x03)
    2141              
    2142              $C$DW$317       .dwtag  DW_TAG_enumerator
    2143                      .dwattr $C$DW$317, DW_AT_name("ADC_IntNumber_5")
    2144                      .dwattr $C$DW$317, DW_AT_const_value(0x04)
    2145              
    2146              $C$DW$318       .dwtag  DW_TAG_enumerator
    2147                      .dwattr $C$DW$318, DW_AT_name("ADC_IntNumber_6")
    2148                      .dwattr $C$DW$318, DW_AT_const_value(0x05)
    2149              
    2150              $C$DW$319       .dwtag  DW_TAG_enumerator
    2151                      .dwattr $C$DW$319, DW_AT_name("ADC_IntNumber_7")
    2152                      .dwattr $C$DW$319, DW_AT_const_value(0x06)
    2153              
    2154              $C$DW$320       .dwtag  DW_TAG_enumerator
    2155                      .dwattr $C$DW$320, DW_AT_name("ADC_IntNumber_8")
    2156                      .dwattr $C$DW$320, DW_AT_const_value(0x07)
    2157              
    2158              $C$DW$321       .dwtag  DW_TAG_enumerator
    2159                      .dwattr $C$DW$321, DW_AT_name("ADC_IntNumber_9")
    2160                      .dwattr $C$DW$321, DW_AT_const_value(0x08)
    2161              
    2162              $C$DW$322       .dwtag  DW_TAG_enumerator
    2163                      .dwattr $C$DW$322, DW_AT_name("ADC_IntNumber_1HP")
    2164                      .dwattr $C$DW$322, DW_AT_const_value(0x09)
    2165              
    2166              $C$DW$323       .dwtag  DW_TAG_enumerator
    2167                      .dwattr $C$DW$323, DW_AT_name("ADC_IntNumber_2HP")
    2168                      .dwattr $C$DW$323, DW_AT_const_value(0x0a)
    2169              
    2170              $C$DW$324       .dwtag  DW_TAG_enumerator
    2171                      .dwattr $C$DW$324, DW_AT_name("ADC_IntNumber_9HP")
    2172                      .dwattr $C$DW$324, DW_AT_const_value(0x0e)
    2173              
    2174                      .dwendtag $C$DW$T$170
TMS320C2000 Assembler PC v15.12.3 Tue Nov 29 20:40:17 2016

Tools Copyright (c) 1996-2015 Texas Instruments Incorporated
C:\Users\Cameron\AppData\Local\Temp\0172010                          PAGE   43

    2175              
    2176              $C$DW$T$171     .dwtag  DW_TAG_typedef
    2177                      .dwattr $C$DW$T$171, DW_AT_name("ADC_IntNumber_e")
    2178                      .dwattr $C$DW$T$171, DW_AT_type(*$C$DW$T$170)
    2179                      .dwattr $C$DW$T$171, DW_AT_language(DW_LANG_C)
    2180              
    2181              
    2182              $C$DW$T$173     .dwtag  DW_TAG_enumeration_type
    2183                      .dwattr $C$DW$T$173, DW_AT_byte_size(0x01)
    2184              $C$DW$325       .dwtag  DW_TAG_enumerator
    2185                      .dwattr $C$DW$325, DW_AT_name("ADC_ResultNumber_0")
    2186                      .dwattr $C$DW$325, DW_AT_const_value(0x00)
    2187              
    2188              $C$DW$326       .dwtag  DW_TAG_enumerator
    2189                      .dwattr $C$DW$326, DW_AT_name("ADC_ResultNumber_1")
    2190                      .dwattr $C$DW$326, DW_AT_const_value(0x01)
    2191              
    2192              $C$DW$327       .dwtag  DW_TAG_enumerator
    2193                      .dwattr $C$DW$327, DW_AT_name("ADC_ResultNumber_2")
    2194                      .dwattr $C$DW$327, DW_AT_const_value(0x02)
    2195              
    2196              $C$DW$328       .dwtag  DW_TAG_enumerator
    2197                      .dwattr $C$DW$328, DW_AT_name("ADC_ResultNumber_3")
    2198                      .dwattr $C$DW$328, DW_AT_const_value(0x03)
    2199              
    2200              $C$DW$329       .dwtag  DW_TAG_enumerator
    2201                      .dwattr $C$DW$329, DW_AT_name("ADC_ResultNumber_4")
    2202                      .dwattr $C$DW$329, DW_AT_const_value(0x04)
    2203              
    2204              $C$DW$330       .dwtag  DW_TAG_enumerator
    2205                      .dwattr $C$DW$330, DW_AT_name("ADC_ResultNumber_5")
    2206                      .dwattr $C$DW$330, DW_AT_const_value(0x05)
    2207              
    2208              $C$DW$331       .dwtag  DW_TAG_enumerator
    2209                      .dwattr $C$DW$331, DW_AT_name("ADC_ResultNumber_6")
    2210                      .dwattr $C$DW$331, DW_AT_const_value(0x06)
    2211              
    2212              $C$DW$332       .dwtag  DW_TAG_enumerator
    2213                      .dwattr $C$DW$332, DW_AT_name("ADC_ResultNumber_7")
    2214                      .dwattr $C$DW$332, DW_AT_const_value(0x07)
    2215              
    2216              $C$DW$333       .dwtag  DW_TAG_enumerator
    2217                      .dwattr $C$DW$333, DW_AT_name("ADC_ResultNumber_8")
    2218                      .dwattr $C$DW$333, DW_AT_const_value(0x08)
    2219              
    2220              $C$DW$334       .dwtag  DW_TAG_enumerator
    2221                      .dwattr $C$DW$334, DW_AT_name("ADC_ResultNumber_9")
    2222                      .dwattr $C$DW$334, DW_AT_const_value(0x09)
    2223              
    2224              $C$DW$335       .dwtag  DW_TAG_enumerator
    2225                      .dwattr $C$DW$335, DW_AT_name("ADC_ResultNumber_10")
    2226                      .dwattr $C$DW$335, DW_AT_const_value(0x0a)
    2227              
    2228              $C$DW$336       .dwtag  DW_TAG_enumerator
    2229                      .dwattr $C$DW$336, DW_AT_name("ADC_ResultNumber_11")
TMS320C2000 Assembler PC v15.12.3 Tue Nov 29 20:40:17 2016

Tools Copyright (c) 1996-2015 Texas Instruments Incorporated
C:\Users\Cameron\AppData\Local\Temp\0172010                          PAGE   44

    2230                      .dwattr $C$DW$336, DW_AT_const_value(0x0b)
    2231              
    2232              $C$DW$337       .dwtag  DW_TAG_enumerator
    2233                      .dwattr $C$DW$337, DW_AT_name("ADC_ResultNumber_12")
    2234                      .dwattr $C$DW$337, DW_AT_const_value(0x0c)
    2235              
    2236              $C$DW$338       .dwtag  DW_TAG_enumerator
    2237                      .dwattr $C$DW$338, DW_AT_name("ADC_ResultNumber_13")
    2238                      .dwattr $C$DW$338, DW_AT_const_value(0x0d)
    2239              
    2240              $C$DW$339       .dwtag  DW_TAG_enumerator
    2241                      .dwattr $C$DW$339, DW_AT_name("ADC_ResultNumber_14")
    2242                      .dwattr $C$DW$339, DW_AT_const_value(0x0e)
    2243              
    2244              $C$DW$340       .dwtag  DW_TAG_enumerator
    2245                      .dwattr $C$DW$340, DW_AT_name("ADC_ResultNumber_15")
    2246                      .dwattr $C$DW$340, DW_AT_const_value(0x0f)
    2247              
    2248                      .dwendtag $C$DW$T$173
    2249              
    2250              $C$DW$T$174     .dwtag  DW_TAG_typedef
    2251                      .dwattr $C$DW$T$174, DW_AT_name("ADC_ResultNumber_e")
    2252                      .dwattr $C$DW$T$174, DW_AT_type(*$C$DW$T$173)
    2253                      .dwattr $C$DW$T$174, DW_AT_language(DW_LANG_C)
    2254              
    2255              
    2256              $C$DW$T$176     .dwtag  DW_TAG_enumeration_type
    2257                      .dwattr $C$DW$T$176, DW_AT_byte_size(0x01)
    2258              $C$DW$341       .dwtag  DW_TAG_enumerator
    2259                      .dwattr $C$DW$341, DW_AT_name("PIE_GroupNumber_1")
    2260                      .dwattr $C$DW$341, DW_AT_const_value(0x00)
    2261              
    2262              $C$DW$342       .dwtag  DW_TAG_enumerator
    2263                      .dwattr $C$DW$342, DW_AT_name("PIE_GroupNumber_2")
    2264                      .dwattr $C$DW$342, DW_AT_const_value(0x01)
    2265              
    2266              $C$DW$343       .dwtag  DW_TAG_enumerator
    2267                      .dwattr $C$DW$343, DW_AT_name("PIE_GroupNumber_3")
    2268                      .dwattr $C$DW$343, DW_AT_const_value(0x02)
    2269              
    2270              $C$DW$344       .dwtag  DW_TAG_enumerator
    2271                      .dwattr $C$DW$344, DW_AT_name("PIE_GroupNumber_4")
    2272                      .dwattr $C$DW$344, DW_AT_const_value(0x03)
    2273              
    2274              $C$DW$345       .dwtag  DW_TAG_enumerator
    2275                      .dwattr $C$DW$345, DW_AT_name("PIE_GroupNumber_5")
    2276                      .dwattr $C$DW$345, DW_AT_const_value(0x04)
    2277              
    2278              $C$DW$346       .dwtag  DW_TAG_enumerator
    2279                      .dwattr $C$DW$346, DW_AT_name("PIE_GroupNumber_6")
    2280                      .dwattr $C$DW$346, DW_AT_const_value(0x05)
    2281              
    2282              $C$DW$347       .dwtag  DW_TAG_enumerator
    2283                      .dwattr $C$DW$347, DW_AT_name("PIE_GroupNumber_7")
    2284                      .dwattr $C$DW$347, DW_AT_const_value(0x06)
TMS320C2000 Assembler PC v15.12.3 Tue Nov 29 20:40:17 2016

Tools Copyright (c) 1996-2015 Texas Instruments Incorporated
C:\Users\Cameron\AppData\Local\Temp\0172010                          PAGE   45

    2285              
    2286              $C$DW$348       .dwtag  DW_TAG_enumerator
    2287                      .dwattr $C$DW$348, DW_AT_name("PIE_GroupNumber_8")
    2288                      .dwattr $C$DW$348, DW_AT_const_value(0x07)
    2289              
    2290              $C$DW$349       .dwtag  DW_TAG_enumerator
    2291                      .dwattr $C$DW$349, DW_AT_name("PIE_GroupNumber_9")
    2292                      .dwattr $C$DW$349, DW_AT_const_value(0x08)
    2293              
    2294              $C$DW$350       .dwtag  DW_TAG_enumerator
    2295                      .dwattr $C$DW$350, DW_AT_name("PIE_GroupNumber_10")
    2296                      .dwattr $C$DW$350, DW_AT_const_value(0x09)
    2297              
    2298              $C$DW$351       .dwtag  DW_TAG_enumerator
    2299                      .dwattr $C$DW$351, DW_AT_name("PIE_GroupNumber_11")
    2300                      .dwattr $C$DW$351, DW_AT_const_value(0x0a)
    2301              
    2302              $C$DW$352       .dwtag  DW_TAG_enumerator
    2303                      .dwattr $C$DW$352, DW_AT_name("PIE_GroupNumber_12")
    2304                      .dwattr $C$DW$352, DW_AT_const_value(0x0b)
    2305              
    2306                      .dwendtag $C$DW$T$176
    2307              
    2308              $C$DW$T$177     .dwtag  DW_TAG_typedef
    2309                      .dwattr $C$DW$T$177, DW_AT_name("PIE_GroupNumber_e")
    2310                      .dwattr $C$DW$T$177, DW_AT_type(*$C$DW$T$176)
    2311                      .dwattr $C$DW$T$177, DW_AT_language(DW_LANG_C)
    2312              
    2313              
    2314              $C$DW$T$29      .dwtag  DW_TAG_structure_type
    2315                      .dwattr $C$DW$T$29, DW_AT_name("_ADC_Obj_")
    2316                      .dwattr $C$DW$T$29, DW_AT_byte_size(0x6650)
    2317              $C$DW$353       .dwtag  DW_TAG_member
    2318                      .dwattr $C$DW$353, DW_AT_type(*$C$DW$T$23)
    2319                      .dwattr $C$DW$353, DW_AT_name("ADCRESULT")
    2320                      .dwattr $C$DW$353, DW_AT_TI_symbol_name("_ADCRESULT")
    2321                      .dwattr $C$DW$353, DW_AT_data_member_location[DW_OP_plus_uconst 0x0]
    2322                      .dwattr $C$DW$353, DW_AT_accessibility(DW_ACCESS_public)
    2323              
    2324              $C$DW$354       .dwtag  DW_TAG_member
    2325                      .dwattr $C$DW$354, DW_AT_type(*$C$DW$T$24)
    2326                      .dwattr $C$DW$354, DW_AT_name("resvd_1")
    2327                      .dwattr $C$DW$354, DW_AT_TI_symbol_name("_resvd_1")
    2328                      .dwattr $C$DW$354, DW_AT_data_member_location[DW_OP_plus_uconst 0x10]
    2329                      .dwattr $C$DW$354, DW_AT_accessibility(DW_ACCESS_public)
    2330              
    2331              $C$DW$355       .dwtag  DW_TAG_member
    2332                      .dwattr $C$DW$355, DW_AT_type(*$C$DW$T$22)
    2333                      .dwattr $C$DW$355, DW_AT_name("ADCCTL1")
    2334                      .dwattr $C$DW$355, DW_AT_TI_symbol_name("_ADCCTL1")
    2335                      .dwattr $C$DW$355, DW_AT_data_member_location[DW_OP_plus_uconst 0x6600]
    2336                      .dwattr $C$DW$355, DW_AT_accessibility(DW_ACCESS_public)
    2337              
    2338              $C$DW$356       .dwtag  DW_TAG_member
    2339                      .dwattr $C$DW$356, DW_AT_type(*$C$DW$T$22)
TMS320C2000 Assembler PC v15.12.3 Tue Nov 29 20:40:17 2016

Tools Copyright (c) 1996-2015 Texas Instruments Incorporated
C:\Users\Cameron\AppData\Local\Temp\0172010                          PAGE   46

    2340                      .dwattr $C$DW$356, DW_AT_name("ADCCTL2")
    2341                      .dwattr $C$DW$356, DW_AT_TI_symbol_name("_ADCCTL2")
    2342                      .dwattr $C$DW$356, DW_AT_data_member_location[DW_OP_plus_uconst 0x6601]
    2343                      .dwattr $C$DW$356, DW_AT_accessibility(DW_ACCESS_public)
    2344              
    2345              $C$DW$357       .dwtag  DW_TAG_member
    2346                      .dwattr $C$DW$357, DW_AT_type(*$C$DW$T$25)
    2347                      .dwattr $C$DW$357, DW_AT_name("rsvd_2")
    2348                      .dwattr $C$DW$357, DW_AT_TI_symbol_name("_rsvd_2")
    2349                      .dwattr $C$DW$357, DW_AT_data_member_location[DW_OP_plus_uconst 0x6602]
    2350                      .dwattr $C$DW$357, DW_AT_accessibility(DW_ACCESS_public)
    2351              
    2352              $C$DW$358       .dwtag  DW_TAG_member
    2353                      .dwattr $C$DW$358, DW_AT_type(*$C$DW$T$22)
    2354                      .dwattr $C$DW$358, DW_AT_name("ADCINTFLG")
    2355                      .dwattr $C$DW$358, DW_AT_TI_symbol_name("_ADCINTFLG")
    2356                      .dwattr $C$DW$358, DW_AT_data_member_location[DW_OP_plus_uconst 0x6604]
    2357                      .dwattr $C$DW$358, DW_AT_accessibility(DW_ACCESS_public)
    2358              
    2359              $C$DW$359       .dwtag  DW_TAG_member
    2360                      .dwattr $C$DW$359, DW_AT_type(*$C$DW$T$22)
    2361                      .dwattr $C$DW$359, DW_AT_name("ADCINTFLGCLR")
    2362                      .dwattr $C$DW$359, DW_AT_TI_symbol_name("_ADCINTFLGCLR")
    2363                      .dwattr $C$DW$359, DW_AT_data_member_location[DW_OP_plus_uconst 0x6605]
    2364                      .dwattr $C$DW$359, DW_AT_accessibility(DW_ACCESS_public)
    2365              
    2366              $C$DW$360       .dwtag  DW_TAG_member
    2367                      .dwattr $C$DW$360, DW_AT_type(*$C$DW$T$22)
    2368                      .dwattr $C$DW$360, DW_AT_name("ADCINTOVF")
    2369                      .dwattr $C$DW$360, DW_AT_TI_symbol_name("_ADCINTOVF")
    2370                      .dwattr $C$DW$360, DW_AT_data_member_location[DW_OP_plus_uconst 0x6606]
    2371                      .dwattr $C$DW$360, DW_AT_accessibility(DW_ACCESS_public)
    2372              
    2373              $C$DW$361       .dwtag  DW_TAG_member
    2374                      .dwattr $C$DW$361, DW_AT_type(*$C$DW$T$22)
    2375                      .dwattr $C$DW$361, DW_AT_name("ADCINTOVFCLR")
    2376                      .dwattr $C$DW$361, DW_AT_TI_symbol_name("_ADCINTOVFCLR")
    2377                      .dwattr $C$DW$361, DW_AT_data_member_location[DW_OP_plus_uconst 0x6607]
    2378                      .dwattr $C$DW$361, DW_AT_accessibility(DW_ACCESS_public)
    2379              
    2380              $C$DW$362       .dwtag  DW_TAG_member
    2381                      .dwattr $C$DW$362, DW_AT_type(*$C$DW$T$26)
    2382                      .dwattr $C$DW$362, DW_AT_name("INTSELxNy")
    2383                      .dwattr $C$DW$362, DW_AT_TI_symbol_name("_INTSELxNy")
    2384                      .dwattr $C$DW$362, DW_AT_data_member_location[DW_OP_plus_uconst 0x6608]
    2385                      .dwattr $C$DW$362, DW_AT_accessibility(DW_ACCESS_public)
    2386              
    2387              $C$DW$363       .dwtag  DW_TAG_member
    2388                      .dwattr $C$DW$363, DW_AT_type(*$C$DW$T$27)
    2389                      .dwattr $C$DW$363, DW_AT_name("rsvd_3")
    2390                      .dwattr $C$DW$363, DW_AT_TI_symbol_name("_rsvd_3")
    2391                      .dwattr $C$DW$363, DW_AT_data_member_location[DW_OP_plus_uconst 0x660d]
    2392                      .dwattr $C$DW$363, DW_AT_accessibility(DW_ACCESS_public)
    2393              
    2394              $C$DW$364       .dwtag  DW_TAG_member
TMS320C2000 Assembler PC v15.12.3 Tue Nov 29 20:40:17 2016

Tools Copyright (c) 1996-2015 Texas Instruments Incorporated
C:\Users\Cameron\AppData\Local\Temp\0172010                          PAGE   47

    2395                      .dwattr $C$DW$364, DW_AT_type(*$C$DW$T$22)
    2396                      .dwattr $C$DW$364, DW_AT_name("SOCPRICTRL")
    2397                      .dwattr $C$DW$364, DW_AT_TI_symbol_name("_SOCPRICTRL")
    2398                      .dwattr $C$DW$364, DW_AT_data_member_location[DW_OP_plus_uconst 0x6610]
    2399                      .dwattr $C$DW$364, DW_AT_accessibility(DW_ACCESS_public)
    2400              
    2401              $C$DW$365       .dwtag  DW_TAG_member
    2402                      .dwattr $C$DW$365, DW_AT_type(*$C$DW$T$22)
    2403                      .dwattr $C$DW$365, DW_AT_name("rsvd_4")
    2404                      .dwattr $C$DW$365, DW_AT_TI_symbol_name("_rsvd_4")
    2405                      .dwattr $C$DW$365, DW_AT_data_member_location[DW_OP_plus_uconst 0x6611]
    2406                      .dwattr $C$DW$365, DW_AT_accessibility(DW_ACCESS_public)
    2407              
    2408              $C$DW$366       .dwtag  DW_TAG_member
    2409                      .dwattr $C$DW$366, DW_AT_type(*$C$DW$T$22)
    2410                      .dwattr $C$DW$366, DW_AT_name("ADCSAMPLEMODE")
    2411                      .dwattr $C$DW$366, DW_AT_TI_symbol_name("_ADCSAMPLEMODE")
    2412                      .dwattr $C$DW$366, DW_AT_data_member_location[DW_OP_plus_uconst 0x6612]
    2413                      .dwattr $C$DW$366, DW_AT_accessibility(DW_ACCESS_public)
    2414              
    2415              $C$DW$367       .dwtag  DW_TAG_member
    2416                      .dwattr $C$DW$367, DW_AT_type(*$C$DW$T$22)
    2417                      .dwattr $C$DW$367, DW_AT_name("rsvd_5")
    2418                      .dwattr $C$DW$367, DW_AT_TI_symbol_name("_rsvd_5")
    2419                      .dwattr $C$DW$367, DW_AT_data_member_location[DW_OP_plus_uconst 0x6613]
    2420                      .dwattr $C$DW$367, DW_AT_accessibility(DW_ACCESS_public)
    2421              
    2422              $C$DW$368       .dwtag  DW_TAG_member
    2423                      .dwattr $C$DW$368, DW_AT_type(*$C$DW$T$22)
    2424                      .dwattr $C$DW$368, DW_AT_name("ADCINTSOCSEL1")
    2425                      .dwattr $C$DW$368, DW_AT_TI_symbol_name("_ADCINTSOCSEL1")
    2426                      .dwattr $C$DW$368, DW_AT_data_member_location[DW_OP_plus_uconst 0x6614]
    2427                      .dwattr $C$DW$368, DW_AT_accessibility(DW_ACCESS_public)
    2428              
    2429              $C$DW$369       .dwtag  DW_TAG_member
    2430                      .dwattr $C$DW$369, DW_AT_type(*$C$DW$T$22)
    2431                      .dwattr $C$DW$369, DW_AT_name("ADCINTSOCSEL2")
    2432                      .dwattr $C$DW$369, DW_AT_TI_symbol_name("_ADCINTSOCSEL2")
    2433                      .dwattr $C$DW$369, DW_AT_data_member_location[DW_OP_plus_uconst 0x6615]
    2434                      .dwattr $C$DW$369, DW_AT_accessibility(DW_ACCESS_public)
    2435              
    2436              $C$DW$370       .dwtag  DW_TAG_member
    2437                      .dwattr $C$DW$370, DW_AT_type(*$C$DW$T$25)
    2438                      .dwattr $C$DW$370, DW_AT_name("rsvd_6")
    2439                      .dwattr $C$DW$370, DW_AT_TI_symbol_name("_rsvd_6")
    2440                      .dwattr $C$DW$370, DW_AT_data_member_location[DW_OP_plus_uconst 0x6616]
    2441                      .dwattr $C$DW$370, DW_AT_accessibility(DW_ACCESS_public)
    2442              
    2443              $C$DW$371       .dwtag  DW_TAG_member
    2444                      .dwattr $C$DW$371, DW_AT_type(*$C$DW$T$22)
    2445                      .dwattr $C$DW$371, DW_AT_name("ADCSOCFLG1")
    2446                      .dwattr $C$DW$371, DW_AT_TI_symbol_name("_ADCSOCFLG1")
    2447                      .dwattr $C$DW$371, DW_AT_data_member_location[DW_OP_plus_uconst 0x6618]
    2448                      .dwattr $C$DW$371, DW_AT_accessibility(DW_ACCESS_public)
    2449              
TMS320C2000 Assembler PC v15.12.3 Tue Nov 29 20:40:17 2016

Tools Copyright (c) 1996-2015 Texas Instruments Incorporated
C:\Users\Cameron\AppData\Local\Temp\0172010                          PAGE   48

    2450              $C$DW$372       .dwtag  DW_TAG_member
    2451                      .dwattr $C$DW$372, DW_AT_type(*$C$DW$T$22)
    2452                      .dwattr $C$DW$372, DW_AT_name("rsvd_7")
    2453                      .dwattr $C$DW$372, DW_AT_TI_symbol_name("_rsvd_7")
    2454                      .dwattr $C$DW$372, DW_AT_data_member_location[DW_OP_plus_uconst 0x6619]
    2455                      .dwattr $C$DW$372, DW_AT_accessibility(DW_ACCESS_public)
    2456              
    2457              $C$DW$373       .dwtag  DW_TAG_member
    2458                      .dwattr $C$DW$373, DW_AT_type(*$C$DW$T$22)
    2459                      .dwattr $C$DW$373, DW_AT_name("ADCSOCFRC1")
    2460                      .dwattr $C$DW$373, DW_AT_TI_symbol_name("_ADCSOCFRC1")
    2461                      .dwattr $C$DW$373, DW_AT_data_member_location[DW_OP_plus_uconst 0x661a]
    2462                      .dwattr $C$DW$373, DW_AT_accessibility(DW_ACCESS_public)
    2463              
    2464              $C$DW$374       .dwtag  DW_TAG_member
    2465                      .dwattr $C$DW$374, DW_AT_type(*$C$DW$T$22)
    2466                      .dwattr $C$DW$374, DW_AT_name("rsvd_8")
    2467                      .dwattr $C$DW$374, DW_AT_TI_symbol_name("_rsvd_8")
    2468                      .dwattr $C$DW$374, DW_AT_data_member_location[DW_OP_plus_uconst 0x661b]
    2469                      .dwattr $C$DW$374, DW_AT_accessibility(DW_ACCESS_public)
    2470              
    2471              $C$DW$375       .dwtag  DW_TAG_member
    2472                      .dwattr $C$DW$375, DW_AT_type(*$C$DW$T$22)
    2473                      .dwattr $C$DW$375, DW_AT_name("ADCSOCOVF1")
    2474                      .dwattr $C$DW$375, DW_AT_TI_symbol_name("_ADCSOCOVF1")
    2475                      .dwattr $C$DW$375, DW_AT_data_member_location[DW_OP_plus_uconst 0x661c]
    2476                      .dwattr $C$DW$375, DW_AT_accessibility(DW_ACCESS_public)
    2477              
    2478              $C$DW$376       .dwtag  DW_TAG_member
    2479                      .dwattr $C$DW$376, DW_AT_type(*$C$DW$T$22)
    2480                      .dwattr $C$DW$376, DW_AT_name("rsvd_9")
    2481                      .dwattr $C$DW$376, DW_AT_TI_symbol_name("_rsvd_9")
    2482                      .dwattr $C$DW$376, DW_AT_data_member_location[DW_OP_plus_uconst 0x661d]
    2483                      .dwattr $C$DW$376, DW_AT_accessibility(DW_ACCESS_public)
    2484              
    2485              $C$DW$377       .dwtag  DW_TAG_member
    2486                      .dwattr $C$DW$377, DW_AT_type(*$C$DW$T$22)
    2487                      .dwattr $C$DW$377, DW_AT_name("ADCSOCOVFCLR1")
    2488                      .dwattr $C$DW$377, DW_AT_TI_symbol_name("_ADCSOCOVFCLR1")
    2489                      .dwattr $C$DW$377, DW_AT_data_member_location[DW_OP_plus_uconst 0x661e]
    2490                      .dwattr $C$DW$377, DW_AT_accessibility(DW_ACCESS_public)
    2491              
    2492              $C$DW$378       .dwtag  DW_TAG_member
    2493                      .dwattr $C$DW$378, DW_AT_type(*$C$DW$T$22)
    2494                      .dwattr $C$DW$378, DW_AT_name("rsvd_10")
    2495                      .dwattr $C$DW$378, DW_AT_TI_symbol_name("_rsvd_10")
    2496                      .dwattr $C$DW$378, DW_AT_data_member_location[DW_OP_plus_uconst 0x661f]
    2497                      .dwattr $C$DW$378, DW_AT_accessibility(DW_ACCESS_public)
    2498              
    2499              $C$DW$379       .dwtag  DW_TAG_member
    2500                      .dwattr $C$DW$379, DW_AT_type(*$C$DW$T$23)
    2501                      .dwattr $C$DW$379, DW_AT_name("ADCSOCxCTL")
    2502                      .dwattr $C$DW$379, DW_AT_TI_symbol_name("_ADCSOCxCTL")
    2503                      .dwattr $C$DW$379, DW_AT_data_member_location[DW_OP_plus_uconst 0x6620]
    2504                      .dwattr $C$DW$379, DW_AT_accessibility(DW_ACCESS_public)
TMS320C2000 Assembler PC v15.12.3 Tue Nov 29 20:40:17 2016

Tools Copyright (c) 1996-2015 Texas Instruments Incorporated
C:\Users\Cameron\AppData\Local\Temp\0172010                          PAGE   49

    2505              
    2506              $C$DW$380       .dwtag  DW_TAG_member
    2507                      .dwattr $C$DW$380, DW_AT_type(*$C$DW$T$23)
    2508                      .dwattr $C$DW$380, DW_AT_name("rsvd_11")
    2509                      .dwattr $C$DW$380, DW_AT_TI_symbol_name("_rsvd_11")
    2510                      .dwattr $C$DW$380, DW_AT_data_member_location[DW_OP_plus_uconst 0x6630]
    2511                      .dwattr $C$DW$380, DW_AT_accessibility(DW_ACCESS_public)
    2512              
    2513              $C$DW$381       .dwtag  DW_TAG_member
    2514                      .dwattr $C$DW$381, DW_AT_type(*$C$DW$T$22)
    2515                      .dwattr $C$DW$381, DW_AT_name("ADCREFTRIM")
    2516                      .dwattr $C$DW$381, DW_AT_TI_symbol_name("_ADCREFTRIM")
    2517                      .dwattr $C$DW$381, DW_AT_data_member_location[DW_OP_plus_uconst 0x6640]
    2518                      .dwattr $C$DW$381, DW_AT_accessibility(DW_ACCESS_public)
    2519              
    2520              $C$DW$382       .dwtag  DW_TAG_member
    2521                      .dwattr $C$DW$382, DW_AT_type(*$C$DW$T$22)
    2522                      .dwattr $C$DW$382, DW_AT_name("ADCOFFTRIM")
    2523                      .dwattr $C$DW$382, DW_AT_TI_symbol_name("_ADCOFFTRIM")
    2524                      .dwattr $C$DW$382, DW_AT_data_member_location[DW_OP_plus_uconst 0x6641]
    2525                      .dwattr $C$DW$382, DW_AT_accessibility(DW_ACCESS_public)
    2526              
    2527              $C$DW$383       .dwtag  DW_TAG_member
    2528                      .dwattr $C$DW$383, DW_AT_type(*$C$DW$T$28)
    2529                      .dwattr $C$DW$383, DW_AT_name("resvd_12")
    2530                      .dwattr $C$DW$383, DW_AT_TI_symbol_name("_resvd_12")
    2531                      .dwattr $C$DW$383, DW_AT_data_member_location[DW_OP_plus_uconst 0x6642]
    2532                      .dwattr $C$DW$383, DW_AT_accessibility(DW_ACCESS_public)
    2533              
    2534              $C$DW$384       .dwtag  DW_TAG_member
    2535                      .dwattr $C$DW$384, DW_AT_type(*$C$DW$T$22)
    2536                      .dwattr $C$DW$384, DW_AT_name("ADCREV")
    2537                      .dwattr $C$DW$384, DW_AT_TI_symbol_name("_ADCREV")
    2538                      .dwattr $C$DW$384, DW_AT_data_member_location[DW_OP_plus_uconst 0x664f]
    2539                      .dwattr $C$DW$384, DW_AT_accessibility(DW_ACCESS_public)
    2540              
    2541                      .dwendtag $C$DW$T$29
    2542              
    2543              $C$DW$T$179     .dwtag  DW_TAG_typedef
    2544                      .dwattr $C$DW$T$179, DW_AT_name("ADC_Obj")
    2545                      .dwattr $C$DW$T$179, DW_AT_type(*$C$DW$T$29)
    2546                      .dwattr $C$DW$T$179, DW_AT_language(DW_LANG_C)
    2547              
    2548              $C$DW$T$82      .dwtag  DW_TAG_pointer_type
    2549                      .dwattr $C$DW$T$82, DW_AT_type(*$C$DW$T$29)
    2550                      .dwattr $C$DW$T$82, DW_AT_address_class(0x20)
    2551              
    2552              $C$DW$T$83      .dwtag  DW_TAG_typedef
    2553                      .dwattr $C$DW$T$83, DW_AT_name("ADC_Handle")
    2554                      .dwattr $C$DW$T$83, DW_AT_type(*$C$DW$T$82)
    2555                      .dwattr $C$DW$T$83, DW_AT_language(DW_LANG_C)
    2556              
    2557              
    2558              $C$DW$T$31      .dwtag  DW_TAG_structure_type
    2559                      .dwattr $C$DW$T$31, DW_AT_name("_CLK_Obj_")
TMS320C2000 Assembler PC v15.12.3 Tue Nov 29 20:40:17 2016

Tools Copyright (c) 1996-2015 Texas Instruments Incorporated
C:\Users\Cameron\AppData\Local\Temp\0172010                          PAGE   50

    2560                      .dwattr $C$DW$T$31, DW_AT_byte_size(0x11)
    2561              $C$DW$385       .dwtag  DW_TAG_member
    2562                      .dwattr $C$DW$385, DW_AT_type(*$C$DW$T$22)
    2563                      .dwattr $C$DW$385, DW_AT_name("XCLK")
    2564                      .dwattr $C$DW$385, DW_AT_TI_symbol_name("_XCLK")
    2565                      .dwattr $C$DW$385, DW_AT_data_member_location[DW_OP_plus_uconst 0x0]
    2566                      .dwattr $C$DW$385, DW_AT_accessibility(DW_ACCESS_public)
    2567              
    2568              $C$DW$386       .dwtag  DW_TAG_member
    2569                      .dwattr $C$DW$386, DW_AT_type(*$C$DW$T$22)
    2570                      .dwattr $C$DW$386, DW_AT_name("rsvd_1")
    2571                      .dwattr $C$DW$386, DW_AT_TI_symbol_name("_rsvd_1")
    2572                      .dwattr $C$DW$386, DW_AT_data_member_location[DW_OP_plus_uconst 0x1]
    2573                      .dwattr $C$DW$386, DW_AT_accessibility(DW_ACCESS_public)
    2574              
    2575              $C$DW$387       .dwtag  DW_TAG_member
    2576                      .dwattr $C$DW$387, DW_AT_type(*$C$DW$T$22)
    2577                      .dwattr $C$DW$387, DW_AT_name("CLKCTL")
    2578                      .dwattr $C$DW$387, DW_AT_TI_symbol_name("_CLKCTL")
    2579                      .dwattr $C$DW$387, DW_AT_data_member_location[DW_OP_plus_uconst 0x2]
    2580                      .dwattr $C$DW$387, DW_AT_accessibility(DW_ACCESS_public)
    2581              
    2582              $C$DW$388       .dwtag  DW_TAG_member
    2583                      .dwattr $C$DW$388, DW_AT_type(*$C$DW$T$30)
    2584                      .dwattr $C$DW$388, DW_AT_name("rsvd_2")
    2585                      .dwattr $C$DW$388, DW_AT_TI_symbol_name("_rsvd_2")
    2586                      .dwattr $C$DW$388, DW_AT_data_member_location[DW_OP_plus_uconst 0x3]
    2587                      .dwattr $C$DW$388, DW_AT_accessibility(DW_ACCESS_public)
    2588              
    2589              $C$DW$389       .dwtag  DW_TAG_member
    2590                      .dwattr $C$DW$389, DW_AT_type(*$C$DW$T$22)
    2591                      .dwattr $C$DW$389, DW_AT_name("LOSPCP")
    2592                      .dwattr $C$DW$389, DW_AT_TI_symbol_name("_LOSPCP")
    2593                      .dwattr $C$DW$389, DW_AT_data_member_location[DW_OP_plus_uconst 0xb]
    2594                      .dwattr $C$DW$389, DW_AT_accessibility(DW_ACCESS_public)
    2595              
    2596              $C$DW$390       .dwtag  DW_TAG_member
    2597                      .dwattr $C$DW$390, DW_AT_type(*$C$DW$T$22)
    2598                      .dwattr $C$DW$390, DW_AT_name("PCLKCR0")
    2599                      .dwattr $C$DW$390, DW_AT_TI_symbol_name("_PCLKCR0")
    2600                      .dwattr $C$DW$390, DW_AT_data_member_location[DW_OP_plus_uconst 0xc]
    2601                      .dwattr $C$DW$390, DW_AT_accessibility(DW_ACCESS_public)
    2602              
    2603              $C$DW$391       .dwtag  DW_TAG_member
    2604                      .dwattr $C$DW$391, DW_AT_type(*$C$DW$T$22)
    2605                      .dwattr $C$DW$391, DW_AT_name("PCLKCR1")
    2606                      .dwattr $C$DW$391, DW_AT_TI_symbol_name("_PCLKCR1")
    2607                      .dwattr $C$DW$391, DW_AT_data_member_location[DW_OP_plus_uconst 0xd]
    2608                      .dwattr $C$DW$391, DW_AT_accessibility(DW_ACCESS_public)
    2609              
    2610              $C$DW$392       .dwtag  DW_TAG_member
    2611                      .dwattr $C$DW$392, DW_AT_type(*$C$DW$T$25)
    2612                      .dwattr $C$DW$392, DW_AT_name("rsvd_3")
    2613                      .dwattr $C$DW$392, DW_AT_TI_symbol_name("_rsvd_3")
    2614                      .dwattr $C$DW$392, DW_AT_data_member_location[DW_OP_plus_uconst 0xe]
TMS320C2000 Assembler PC v15.12.3 Tue Nov 29 20:40:17 2016

Tools Copyright (c) 1996-2015 Texas Instruments Incorporated
C:\Users\Cameron\AppData\Local\Temp\0172010                          PAGE   51

    2615                      .dwattr $C$DW$392, DW_AT_accessibility(DW_ACCESS_public)
    2616              
    2617              $C$DW$393       .dwtag  DW_TAG_member
    2618                      .dwattr $C$DW$393, DW_AT_type(*$C$DW$T$22)
    2619                      .dwattr $C$DW$393, DW_AT_name("PCLKCR3")
    2620                      .dwattr $C$DW$393, DW_AT_TI_symbol_name("_PCLKCR3")
    2621                      .dwattr $C$DW$393, DW_AT_data_member_location[DW_OP_plus_uconst 0x10]
    2622                      .dwattr $C$DW$393, DW_AT_accessibility(DW_ACCESS_public)
    2623              
    2624                      .dwendtag $C$DW$T$31
    2625              
    2626              $C$DW$T$84      .dwtag  DW_TAG_pointer_type
    2627                      .dwattr $C$DW$T$84, DW_AT_type(*$C$DW$T$31)
    2628                      .dwattr $C$DW$T$84, DW_AT_address_class(0x20)
    2629              
    2630              $C$DW$T$85      .dwtag  DW_TAG_typedef
    2631                      .dwattr $C$DW$T$85, DW_AT_name("CLK_Handle")
    2632                      .dwattr $C$DW$T$85, DW_AT_type(*$C$DW$T$84)
    2633                      .dwattr $C$DW$T$85, DW_AT_language(DW_LANG_C)
    2634              
    2635              
    2636              $C$DW$T$33      .dwtag  DW_TAG_structure_type
    2637                      .dwattr $C$DW$T$33, DW_AT_name("_CPU_Obj_")
    2638                      .dwattr $C$DW$T$33, DW_AT_byte_size(0x01)
    2639              $C$DW$394       .dwtag  DW_TAG_member
    2640                      .dwattr $C$DW$394, DW_AT_type(*$C$DW$T$32)
    2641                      .dwattr $C$DW$394, DW_AT_name("tmp")
    2642                      .dwattr $C$DW$394, DW_AT_TI_symbol_name("_tmp")
    2643                      .dwattr $C$DW$394, DW_AT_data_member_location[DW_OP_plus_uconst 0x0]
    2644                      .dwattr $C$DW$394, DW_AT_accessibility(DW_ACCESS_public)
    2645              
    2646                      .dwendtag $C$DW$T$33
    2647              
    2648              $C$DW$T$86      .dwtag  DW_TAG_pointer_type
    2649                      .dwattr $C$DW$T$86, DW_AT_type(*$C$DW$T$33)
    2650                      .dwattr $C$DW$T$86, DW_AT_address_class(0x20)
    2651              
    2652              $C$DW$T$87      .dwtag  DW_TAG_typedef
    2653                      .dwattr $C$DW$T$87, DW_AT_name("CPU_Handle")
    2654                      .dwattr $C$DW$T$87, DW_AT_type(*$C$DW$T$86)
    2655                      .dwattr $C$DW$T$87, DW_AT_language(DW_LANG_C)
    2656              
    2657              
    2658              $C$DW$T$36      .dwtag  DW_TAG_structure_type
    2659                      .dwattr $C$DW$T$36, DW_AT_name("_CTRL_Version_")
    2660                      .dwattr $C$DW$T$36, DW_AT_byte_size(0x04)
    2661              $C$DW$395       .dwtag  DW_TAG_member
    2662                      .dwattr $C$DW$395, DW_AT_type(*$C$DW$T$21)
    2663                      .dwattr $C$DW$395, DW_AT_name("rsvd")
    2664                      .dwattr $C$DW$395, DW_AT_TI_symbol_name("_rsvd")
    2665                      .dwattr $C$DW$395, DW_AT_data_member_location[DW_OP_plus_uconst 0x0]
    2666                      .dwattr $C$DW$395, DW_AT_accessibility(DW_ACCESS_public)
    2667              
    2668              $C$DW$396       .dwtag  DW_TAG_member
    2669                      .dwattr $C$DW$396, DW_AT_type(*$C$DW$T$35)
TMS320C2000 Assembler PC v15.12.3 Tue Nov 29 20:40:17 2016

Tools Copyright (c) 1996-2015 Texas Instruments Incorporated
C:\Users\Cameron\AppData\Local\Temp\0172010                          PAGE   52

    2670                      .dwattr $C$DW$396, DW_AT_name("targetProc")
    2671                      .dwattr $C$DW$396, DW_AT_TI_symbol_name("_targetProc")
    2672                      .dwattr $C$DW$396, DW_AT_data_member_location[DW_OP_plus_uconst 0x1]
    2673                      .dwattr $C$DW$396, DW_AT_accessibility(DW_ACCESS_public)
    2674              
    2675              $C$DW$397       .dwtag  DW_TAG_member
    2676                      .dwattr $C$DW$397, DW_AT_type(*$C$DW$T$21)
    2677                      .dwattr $C$DW$397, DW_AT_name("major")
    2678                      .dwattr $C$DW$397, DW_AT_TI_symbol_name("_major")
    2679                      .dwattr $C$DW$397, DW_AT_data_member_location[DW_OP_plus_uconst 0x2]
    2680                      .dwattr $C$DW$397, DW_AT_accessibility(DW_ACCESS_public)
    2681              
    2682              $C$DW$398       .dwtag  DW_TAG_member
    2683                      .dwattr $C$DW$398, DW_AT_type(*$C$DW$T$21)
    2684                      .dwattr $C$DW$398, DW_AT_name("minor")
    2685                      .dwattr $C$DW$398, DW_AT_TI_symbol_name("_minor")
    2686                      .dwattr $C$DW$398, DW_AT_data_member_location[DW_OP_plus_uconst 0x3]
    2687                      .dwattr $C$DW$398, DW_AT_accessibility(DW_ACCESS_public)
    2688              
    2689                      .dwendtag $C$DW$T$36
    2690              
    2691              $C$DW$T$128     .dwtag  DW_TAG_typedef
    2692                      .dwattr $C$DW$T$128, DW_AT_name("CTRL_Version")
    2693                      .dwattr $C$DW$T$128, DW_AT_type(*$C$DW$T$36)
    2694                      .dwattr $C$DW$T$128, DW_AT_language(DW_LANG_C)
    2695              
    2696              
    2697              $C$DW$T$44      .dwtag  DW_TAG_structure_type
    2698                      .dwattr $C$DW$T$44, DW_AT_name("_DRV8301_Obj_")
    2699                      .dwattr $C$DW$T$44, DW_AT_byte_size(0x08)
    2700              $C$DW$399       .dwtag  DW_TAG_member
    2701                      .dwattr $C$DW$399, DW_AT_type(*$C$DW$T$38)
    2702                      .dwattr $C$DW$399, DW_AT_name("spiHandle")
    2703                      .dwattr $C$DW$399, DW_AT_TI_symbol_name("_spiHandle")
    2704                      .dwattr $C$DW$399, DW_AT_data_member_location[DW_OP_plus_uconst 0x0]
    2705                      .dwattr $C$DW$399, DW_AT_accessibility(DW_ACCESS_public)
    2706              
    2707              $C$DW$400       .dwtag  DW_TAG_member
    2708                      .dwattr $C$DW$400, DW_AT_type(*$C$DW$T$40)
    2709                      .dwattr $C$DW$400, DW_AT_name("gpioHandle")
    2710                      .dwattr $C$DW$400, DW_AT_TI_symbol_name("_gpioHandle")
    2711                      .dwattr $C$DW$400, DW_AT_data_member_location[DW_OP_plus_uconst 0x2]
    2712                      .dwattr $C$DW$400, DW_AT_accessibility(DW_ACCESS_public)
    2713              
    2714              $C$DW$401       .dwtag  DW_TAG_member
    2715                      .dwattr $C$DW$401, DW_AT_type(*$C$DW$T$42)
    2716                      .dwattr $C$DW$401, DW_AT_name("gpioNumber")
    2717                      .dwattr $C$DW$401, DW_AT_TI_symbol_name("_gpioNumber")
    2718                      .dwattr $C$DW$401, DW_AT_data_member_location[DW_OP_plus_uconst 0x4]
    2719                      .dwattr $C$DW$401, DW_AT_accessibility(DW_ACCESS_public)
    2720              
    2721              $C$DW$402       .dwtag  DW_TAG_member
    2722                      .dwattr $C$DW$402, DW_AT_type(*$C$DW$T$43)
    2723                      .dwattr $C$DW$402, DW_AT_name("RxTimeOut")
    2724                      .dwattr $C$DW$402, DW_AT_TI_symbol_name("_RxTimeOut")
TMS320C2000 Assembler PC v15.12.3 Tue Nov 29 20:40:17 2016

Tools Copyright (c) 1996-2015 Texas Instruments Incorporated
C:\Users\Cameron\AppData\Local\Temp\0172010                          PAGE   53

    2725                      .dwattr $C$DW$402, DW_AT_data_member_location[DW_OP_plus_uconst 0x5]
    2726                      .dwattr $C$DW$402, DW_AT_accessibility(DW_ACCESS_public)
    2727              
    2728              $C$DW$403       .dwtag  DW_TAG_member
    2729                      .dwattr $C$DW$403, DW_AT_type(*$C$DW$T$43)
    2730                      .dwattr $C$DW$403, DW_AT_name("enableTimeOut")
    2731                      .dwattr $C$DW$403, DW_AT_TI_symbol_name("_enableTimeOut")
    2732                      .dwattr $C$DW$403, DW_AT_data_member_location[DW_OP_plus_uconst 0x6]
    2733                      .dwattr $C$DW$403, DW_AT_accessibility(DW_ACCESS_public)
    2734              
    2735                      .dwendtag $C$DW$T$44
    2736              
    2737              $C$DW$T$115     .dwtag  DW_TAG_typedef
    2738                      .dwattr $C$DW$T$115, DW_AT_name("DRV8301_Obj")
    2739                      .dwattr $C$DW$T$115, DW_AT_type(*$C$DW$T$44)
    2740                      .dwattr $C$DW$T$115, DW_AT_language(DW_LANG_C)
    2741              
    2742              $C$DW$T$113     .dwtag  DW_TAG_pointer_type
    2743                      .dwattr $C$DW$T$113, DW_AT_type(*$C$DW$T$44)
    2744                      .dwattr $C$DW$T$113, DW_AT_address_class(0x20)
    2745              
    2746              $C$DW$T$114     .dwtag  DW_TAG_typedef
    2747                      .dwattr $C$DW$T$114, DW_AT_name("DRV8301_Handle")
    2748                      .dwattr $C$DW$T$114, DW_AT_type(*$C$DW$T$113)
    2749                      .dwattr $C$DW$T$114, DW_AT_language(DW_LANG_C)
    2750              
    2751              
    2752              $C$DW$T$55      .dwtag  DW_TAG_structure_type
    2753                      .dwattr $C$DW$T$55, DW_AT_name("_DRV_SPI_8301_CTRL1_t_")
    2754                      .dwattr $C$DW$T$55, DW_AT_byte_size(0x05)
    2755              $C$DW$404       .dwtag  DW_TAG_member
    2756                      .dwattr $C$DW$404, DW_AT_type(*$C$DW$T$46)
    2757                      .dwattr $C$DW$404, DW_AT_name("DRV8301_CURRENT")
    2758                      .dwattr $C$DW$404, DW_AT_TI_symbol_name("_DRV8301_CURRENT")
    2759                      .dwattr $C$DW$404, DW_AT_data_member_location[DW_OP_plus_uconst 0x0]
    2760                      .dwattr $C$DW$404, DW_AT_accessibility(DW_ACCESS_public)
    2761              
    2762              $C$DW$405       .dwtag  DW_TAG_member
    2763                      .dwattr $C$DW$405, DW_AT_type(*$C$DW$T$48)
    2764                      .dwattr $C$DW$405, DW_AT_name("DRV8301_RESET")
    2765                      .dwattr $C$DW$405, DW_AT_TI_symbol_name("_DRV8301_RESET")
    2766                      .dwattr $C$DW$405, DW_AT_data_member_location[DW_OP_plus_uconst 0x1]
    2767                      .dwattr $C$DW$405, DW_AT_accessibility(DW_ACCESS_public)
    2768              
    2769              $C$DW$406       .dwtag  DW_TAG_member
    2770                      .dwattr $C$DW$406, DW_AT_type(*$C$DW$T$50)
    2771                      .dwattr $C$DW$406, DW_AT_name("PWM_MODE")
    2772                      .dwattr $C$DW$406, DW_AT_TI_symbol_name("_PWM_MODE")
    2773                      .dwattr $C$DW$406, DW_AT_data_member_location[DW_OP_plus_uconst 0x2]
    2774                      .dwattr $C$DW$406, DW_AT_accessibility(DW_ACCESS_public)
    2775              
    2776              $C$DW$407       .dwtag  DW_TAG_member
    2777                      .dwattr $C$DW$407, DW_AT_type(*$C$DW$T$52)
    2778                      .dwattr $C$DW$407, DW_AT_name("OC_MODE")
    2779                      .dwattr $C$DW$407, DW_AT_TI_symbol_name("_OC_MODE")
TMS320C2000 Assembler PC v15.12.3 Tue Nov 29 20:40:17 2016

Tools Copyright (c) 1996-2015 Texas Instruments Incorporated
C:\Users\Cameron\AppData\Local\Temp\0172010                          PAGE   54

    2780                      .dwattr $C$DW$407, DW_AT_data_member_location[DW_OP_plus_uconst 0x3]
    2781                      .dwattr $C$DW$407, DW_AT_accessibility(DW_ACCESS_public)
    2782              
    2783              $C$DW$408       .dwtag  DW_TAG_member
    2784                      .dwattr $C$DW$408, DW_AT_type(*$C$DW$T$54)
    2785                      .dwattr $C$DW$408, DW_AT_name("OC_ADJ_SET")
    2786                      .dwattr $C$DW$408, DW_AT_TI_symbol_name("_OC_ADJ_SET")
    2787                      .dwattr $C$DW$408, DW_AT_data_member_location[DW_OP_plus_uconst 0x4]
    2788                      .dwattr $C$DW$408, DW_AT_accessibility(DW_ACCESS_public)
    2789              
    2790                      .dwendtag $C$DW$T$55
    2791              
    2792              $C$DW$T$69      .dwtag  DW_TAG_typedef
    2793                      .dwattr $C$DW$T$69, DW_AT_name("DRV_SPI_8301_CTRL1_t_")
    2794                      .dwattr $C$DW$T$69, DW_AT_type(*$C$DW$T$55)
    2795                      .dwattr $C$DW$T$69, DW_AT_language(DW_LANG_C)
    2796              
    2797              
    2798              $C$DW$T$64      .dwtag  DW_TAG_structure_type
    2799                      .dwattr $C$DW$T$64, DW_AT_name("_DRV_SPI_8301_CTRL2_t_")
    2800                      .dwattr $C$DW$T$64, DW_AT_byte_size(0x04)
    2801              $C$DW$409       .dwtag  DW_TAG_member
    2802                      .dwattr $C$DW$409, DW_AT_type(*$C$DW$T$57)
    2803                      .dwattr $C$DW$409, DW_AT_name("OCTW_SET")
    2804                      .dwattr $C$DW$409, DW_AT_TI_symbol_name("_OCTW_SET")
    2805                      .dwattr $C$DW$409, DW_AT_data_member_location[DW_OP_plus_uconst 0x0]
    2806                      .dwattr $C$DW$409, DW_AT_accessibility(DW_ACCESS_public)
    2807              
    2808              $C$DW$410       .dwtag  DW_TAG_member
    2809                      .dwattr $C$DW$410, DW_AT_type(*$C$DW$T$59)
    2810                      .dwattr $C$DW$410, DW_AT_name("GAIN")
    2811                      .dwattr $C$DW$410, DW_AT_TI_symbol_name("_GAIN")
    2812                      .dwattr $C$DW$410, DW_AT_data_member_location[DW_OP_plus_uconst 0x1]
    2813                      .dwattr $C$DW$410, DW_AT_accessibility(DW_ACCESS_public)
    2814              
    2815              $C$DW$411       .dwtag  DW_TAG_member
    2816                      .dwattr $C$DW$411, DW_AT_type(*$C$DW$T$61)
    2817                      .dwattr $C$DW$411, DW_AT_name("DC_CAL_CH1p2")
    2818                      .dwattr $C$DW$411, DW_AT_TI_symbol_name("_DC_CAL_CH1p2")
    2819                      .dwattr $C$DW$411, DW_AT_data_member_location[DW_OP_plus_uconst 0x2]
    2820                      .dwattr $C$DW$411, DW_AT_accessibility(DW_ACCESS_public)
    2821              
    2822              $C$DW$412       .dwtag  DW_TAG_member
    2823                      .dwattr $C$DW$412, DW_AT_type(*$C$DW$T$63)
    2824                      .dwattr $C$DW$412, DW_AT_name("OC_TOFF")
    2825                      .dwattr $C$DW$412, DW_AT_TI_symbol_name("_OC_TOFF")
    2826                      .dwattr $C$DW$412, DW_AT_data_member_location[DW_OP_plus_uconst 0x3]
    2827                      .dwattr $C$DW$412, DW_AT_accessibility(DW_ACCESS_public)
    2828              
    2829                      .dwendtag $C$DW$T$64
    2830              
    2831              $C$DW$T$70      .dwtag  DW_TAG_typedef
    2832                      .dwattr $C$DW$T$70, DW_AT_name("DRV_SPI_8301_CTRL2_t_")
    2833                      .dwattr $C$DW$T$70, DW_AT_type(*$C$DW$T$64)
    2834                      .dwattr $C$DW$T$70, DW_AT_language(DW_LANG_C)
TMS320C2000 Assembler PC v15.12.3 Tue Nov 29 20:40:17 2016

Tools Copyright (c) 1996-2015 Texas Instruments Incorporated
C:\Users\Cameron\AppData\Local\Temp\0172010                          PAGE   55

    2835              
    2836              
    2837              $C$DW$T$65      .dwtag  DW_TAG_structure_type
    2838                      .dwattr $C$DW$T$65, DW_AT_name("_DRV_SPI_8301_Stat1_t_")
    2839                      .dwattr $C$DW$T$65, DW_AT_byte_size(0x0b)
    2840              $C$DW$413       .dwtag  DW_TAG_member
    2841                      .dwattr $C$DW$413, DW_AT_type(*$C$DW$T$43)
    2842                      .dwattr $C$DW$413, DW_AT_name("FAULT")
    2843                      .dwattr $C$DW$413, DW_AT_TI_symbol_name("_FAULT")
    2844                      .dwattr $C$DW$413, DW_AT_data_member_location[DW_OP_plus_uconst 0x0]
    2845                      .dwattr $C$DW$413, DW_AT_accessibility(DW_ACCESS_public)
    2846              
    2847              $C$DW$414       .dwtag  DW_TAG_member
    2848                      .dwattr $C$DW$414, DW_AT_type(*$C$DW$T$43)
    2849                      .dwattr $C$DW$414, DW_AT_name("GVDD_UV")
    2850                      .dwattr $C$DW$414, DW_AT_TI_symbol_name("_GVDD_UV")
    2851                      .dwattr $C$DW$414, DW_AT_data_member_location[DW_OP_plus_uconst 0x1]
    2852                      .dwattr $C$DW$414, DW_AT_accessibility(DW_ACCESS_public)
    2853              
    2854              $C$DW$415       .dwtag  DW_TAG_member
    2855                      .dwattr $C$DW$415, DW_AT_type(*$C$DW$T$43)
    2856                      .dwattr $C$DW$415, DW_AT_name("PVDD_UV")
    2857                      .dwattr $C$DW$415, DW_AT_TI_symbol_name("_PVDD_UV")
    2858                      .dwattr $C$DW$415, DW_AT_data_member_location[DW_OP_plus_uconst 0x2]
    2859                      .dwattr $C$DW$415, DW_AT_accessibility(DW_ACCESS_public)
    2860              
    2861              $C$DW$416       .dwtag  DW_TAG_member
    2862                      .dwattr $C$DW$416, DW_AT_type(*$C$DW$T$43)
    2863                      .dwattr $C$DW$416, DW_AT_name("OTSD")
    2864                      .dwattr $C$DW$416, DW_AT_TI_symbol_name("_OTSD")
    2865                      .dwattr $C$DW$416, DW_AT_data_member_location[DW_OP_plus_uconst 0x3]
    2866                      .dwattr $C$DW$416, DW_AT_accessibility(DW_ACCESS_public)
    2867              
    2868              $C$DW$417       .dwtag  DW_TAG_member
    2869                      .dwattr $C$DW$417, DW_AT_type(*$C$DW$T$43)
    2870                      .dwattr $C$DW$417, DW_AT_name("OTW")
    2871                      .dwattr $C$DW$417, DW_AT_TI_symbol_name("_OTW")
    2872                      .dwattr $C$DW$417, DW_AT_data_member_location[DW_OP_plus_uconst 0x4]
    2873                      .dwattr $C$DW$417, DW_AT_accessibility(DW_ACCESS_public)
    2874              
    2875              $C$DW$418       .dwtag  DW_TAG_member
    2876                      .dwattr $C$DW$418, DW_AT_type(*$C$DW$T$43)
    2877                      .dwattr $C$DW$418, DW_AT_name("FETHA_OC")
    2878                      .dwattr $C$DW$418, DW_AT_TI_symbol_name("_FETHA_OC")
    2879                      .dwattr $C$DW$418, DW_AT_data_member_location[DW_OP_plus_uconst 0x5]
    2880                      .dwattr $C$DW$418, DW_AT_accessibility(DW_ACCESS_public)
    2881              
    2882              $C$DW$419       .dwtag  DW_TAG_member
    2883                      .dwattr $C$DW$419, DW_AT_type(*$C$DW$T$43)
    2884                      .dwattr $C$DW$419, DW_AT_name("FETLA_OC")
    2885                      .dwattr $C$DW$419, DW_AT_TI_symbol_name("_FETLA_OC")
    2886                      .dwattr $C$DW$419, DW_AT_data_member_location[DW_OP_plus_uconst 0x6]
    2887                      .dwattr $C$DW$419, DW_AT_accessibility(DW_ACCESS_public)
    2888              
    2889              $C$DW$420       .dwtag  DW_TAG_member
TMS320C2000 Assembler PC v15.12.3 Tue Nov 29 20:40:17 2016

Tools Copyright (c) 1996-2015 Texas Instruments Incorporated
C:\Users\Cameron\AppData\Local\Temp\0172010                          PAGE   56

    2890                      .dwattr $C$DW$420, DW_AT_type(*$C$DW$T$43)
    2891                      .dwattr $C$DW$420, DW_AT_name("FETHB_OC")
    2892                      .dwattr $C$DW$420, DW_AT_TI_symbol_name("_FETHB_OC")
    2893                      .dwattr $C$DW$420, DW_AT_data_member_location[DW_OP_plus_uconst 0x7]
    2894                      .dwattr $C$DW$420, DW_AT_accessibility(DW_ACCESS_public)
    2895              
    2896              $C$DW$421       .dwtag  DW_TAG_member
    2897                      .dwattr $C$DW$421, DW_AT_type(*$C$DW$T$43)
    2898                      .dwattr $C$DW$421, DW_AT_name("FETLB_OC")
    2899                      .dwattr $C$DW$421, DW_AT_TI_symbol_name("_FETLB_OC")
    2900                      .dwattr $C$DW$421, DW_AT_data_member_location[DW_OP_plus_uconst 0x8]
    2901                      .dwattr $C$DW$421, DW_AT_accessibility(DW_ACCESS_public)
    2902              
    2903              $C$DW$422       .dwtag  DW_TAG_member
    2904                      .dwattr $C$DW$422, DW_AT_type(*$C$DW$T$43)
    2905                      .dwattr $C$DW$422, DW_AT_name("FETHC_OC")
    2906                      .dwattr $C$DW$422, DW_AT_TI_symbol_name("_FETHC_OC")
    2907                      .dwattr $C$DW$422, DW_AT_data_member_location[DW_OP_plus_uconst 0x9]
    2908                      .dwattr $C$DW$422, DW_AT_accessibility(DW_ACCESS_public)
    2909              
    2910              $C$DW$423       .dwtag  DW_TAG_member
    2911                      .dwattr $C$DW$423, DW_AT_type(*$C$DW$T$43)
    2912                      .dwattr $C$DW$423, DW_AT_name("FETLC_OC")
    2913                      .dwattr $C$DW$423, DW_AT_TI_symbol_name("_FETLC_OC")
    2914                      .dwattr $C$DW$423, DW_AT_data_member_location[DW_OP_plus_uconst 0xa]
    2915                      .dwattr $C$DW$423, DW_AT_accessibility(DW_ACCESS_public)
    2916              
    2917                      .dwendtag $C$DW$T$65
    2918              
    2919              $C$DW$T$67      .dwtag  DW_TAG_typedef
    2920                      .dwattr $C$DW$T$67, DW_AT_name("DRV_SPI_8301_Stat1_t_")
    2921                      .dwattr $C$DW$T$67, DW_AT_type(*$C$DW$T$65)
    2922                      .dwattr $C$DW$T$67, DW_AT_language(DW_LANG_C)
    2923              
    2924              
    2925              $C$DW$T$66      .dwtag  DW_TAG_structure_type
    2926                      .dwattr $C$DW$T$66, DW_AT_name("_DRV_SPI_8301_Stat2_t_")
    2927                      .dwattr $C$DW$T$66, DW_AT_byte_size(0x02)
    2928              $C$DW$424       .dwtag  DW_TAG_member
    2929                      .dwattr $C$DW$424, DW_AT_type(*$C$DW$T$43)
    2930                      .dwattr $C$DW$424, DW_AT_name("GVDD_OV")
    2931                      .dwattr $C$DW$424, DW_AT_TI_symbol_name("_GVDD_OV")
    2932                      .dwattr $C$DW$424, DW_AT_data_member_location[DW_OP_plus_uconst 0x0]
    2933                      .dwattr $C$DW$424, DW_AT_accessibility(DW_ACCESS_public)
    2934              
    2935              $C$DW$425       .dwtag  DW_TAG_member
    2936                      .dwattr $C$DW$425, DW_AT_type(*$C$DW$T$21)
    2937                      .dwattr $C$DW$425, DW_AT_name("DeviceID")
    2938                      .dwattr $C$DW$425, DW_AT_TI_symbol_name("_DeviceID")
    2939                      .dwattr $C$DW$425, DW_AT_data_member_location[DW_OP_plus_uconst 0x1]
    2940                      .dwattr $C$DW$425, DW_AT_accessibility(DW_ACCESS_public)
    2941              
    2942                      .dwendtag $C$DW$T$66
    2943              
    2944              $C$DW$T$68      .dwtag  DW_TAG_typedef
TMS320C2000 Assembler PC v15.12.3 Tue Nov 29 20:40:17 2016

Tools Copyright (c) 1996-2015 Texas Instruments Incorporated
C:\Users\Cameron\AppData\Local\Temp\0172010                          PAGE   57

    2945                      .dwattr $C$DW$T$68, DW_AT_name("DRV_SPI_8301_Stat2_t_")
    2946                      .dwattr $C$DW$T$68, DW_AT_type(*$C$DW$T$66)
    2947                      .dwattr $C$DW$T$68, DW_AT_language(DW_LANG_C)
    2948              
    2949              
    2950              $C$DW$T$71      .dwtag  DW_TAG_structure_type
    2951                      .dwattr $C$DW$T$71, DW_AT_name("_DRV_SPI_8301_Vars_t_")
    2952                      .dwattr $C$DW$T$71, DW_AT_byte_size(0x18)
    2953              $C$DW$426       .dwtag  DW_TAG_member
    2954                      .dwattr $C$DW$426, DW_AT_type(*$C$DW$T$67)
    2955                      .dwattr $C$DW$426, DW_AT_name("Stat_Reg_1")
    2956                      .dwattr $C$DW$426, DW_AT_TI_symbol_name("_Stat_Reg_1")
    2957                      .dwattr $C$DW$426, DW_AT_data_member_location[DW_OP_plus_uconst 0x0]
    2958                      .dwattr $C$DW$426, DW_AT_accessibility(DW_ACCESS_public)
    2959              
    2960              $C$DW$427       .dwtag  DW_TAG_member
    2961                      .dwattr $C$DW$427, DW_AT_type(*$C$DW$T$68)
    2962                      .dwattr $C$DW$427, DW_AT_name("Stat_Reg_2")
    2963                      .dwattr $C$DW$427, DW_AT_TI_symbol_name("_Stat_Reg_2")
    2964                      .dwattr $C$DW$427, DW_AT_data_member_location[DW_OP_plus_uconst 0xb]
    2965                      .dwattr $C$DW$427, DW_AT_accessibility(DW_ACCESS_public)
    2966              
    2967              $C$DW$428       .dwtag  DW_TAG_member
    2968                      .dwattr $C$DW$428, DW_AT_type(*$C$DW$T$69)
    2969                      .dwattr $C$DW$428, DW_AT_name("Ctrl_Reg_1")
    2970                      .dwattr $C$DW$428, DW_AT_TI_symbol_name("_Ctrl_Reg_1")
    2971                      .dwattr $C$DW$428, DW_AT_data_member_location[DW_OP_plus_uconst 0xd]
    2972                      .dwattr $C$DW$428, DW_AT_accessibility(DW_ACCESS_public)
    2973              
    2974              $C$DW$429       .dwtag  DW_TAG_member
    2975                      .dwattr $C$DW$429, DW_AT_type(*$C$DW$T$70)
    2976                      .dwattr $C$DW$429, DW_AT_name("Ctrl_Reg_2")
    2977                      .dwattr $C$DW$429, DW_AT_TI_symbol_name("_Ctrl_Reg_2")
    2978                      .dwattr $C$DW$429, DW_AT_data_member_location[DW_OP_plus_uconst 0x12]
    2979                      .dwattr $C$DW$429, DW_AT_accessibility(DW_ACCESS_public)
    2980              
    2981              $C$DW$430       .dwtag  DW_TAG_member
    2982                      .dwattr $C$DW$430, DW_AT_type(*$C$DW$T$43)
    2983                      .dwattr $C$DW$430, DW_AT_name("SndCmd")
    2984                      .dwattr $C$DW$430, DW_AT_TI_symbol_name("_SndCmd")
    2985                      .dwattr $C$DW$430, DW_AT_data_member_location[DW_OP_plus_uconst 0x16]
    2986                      .dwattr $C$DW$430, DW_AT_accessibility(DW_ACCESS_public)
    2987              
    2988              $C$DW$431       .dwtag  DW_TAG_member
    2989                      .dwattr $C$DW$431, DW_AT_type(*$C$DW$T$43)
    2990                      .dwattr $C$DW$431, DW_AT_name("RcvCmd")
    2991                      .dwattr $C$DW$431, DW_AT_TI_symbol_name("_RcvCmd")
    2992                      .dwattr $C$DW$431, DW_AT_data_member_location[DW_OP_plus_uconst 0x17]
    2993                      .dwattr $C$DW$431, DW_AT_accessibility(DW_ACCESS_public)
    2994              
    2995                      .dwendtag $C$DW$T$71
    2996              
    2997              $C$DW$T$180     .dwtag  DW_TAG_typedef
    2998                      .dwattr $C$DW$T$180, DW_AT_name("DRV_SPI_8301_Vars_t")
    2999                      .dwattr $C$DW$T$180, DW_AT_type(*$C$DW$T$71)
TMS320C2000 Assembler PC v15.12.3 Tue Nov 29 20:40:17 2016

Tools Copyright (c) 1996-2015 Texas Instruments Incorporated
C:\Users\Cameron\AppData\Local\Temp\0172010                          PAGE   58

    3000                      .dwattr $C$DW$T$180, DW_AT_language(DW_LANG_C)
    3001              
    3002              $C$DW$T$181     .dwtag  DW_TAG_pointer_type
    3003                      .dwattr $C$DW$T$181, DW_AT_type(*$C$DW$T$180)
    3004                      .dwattr $C$DW$T$181, DW_AT_address_class(0x20)
    3005              
    3006              
    3007              $C$DW$T$73      .dwtag  DW_TAG_structure_type
    3008                      .dwattr $C$DW$T$73, DW_AT_name("_FILTER_FO_")
    3009                      .dwattr $C$DW$T$73, DW_AT_byte_size(0x0a)
    3010              $C$DW$432       .dwtag  DW_TAG_member
    3011                      .dwattr $C$DW$432, DW_AT_type(*$C$DW$T$72)
    3012                      .dwattr $C$DW$432, DW_AT_name("a1")
    3013                      .dwattr $C$DW$432, DW_AT_TI_symbol_name("_a1")
    3014                      .dwattr $C$DW$432, DW_AT_data_member_location[DW_OP_plus_uconst 0x0]
    3015                      .dwattr $C$DW$432, DW_AT_accessibility(DW_ACCESS_public)
    3016              
    3017              $C$DW$433       .dwtag  DW_TAG_member
    3018                      .dwattr $C$DW$433, DW_AT_type(*$C$DW$T$72)
    3019                      .dwattr $C$DW$433, DW_AT_name("b0")
    3020                      .dwattr $C$DW$433, DW_AT_TI_symbol_name("_b0")
    3021                      .dwattr $C$DW$433, DW_AT_data_member_location[DW_OP_plus_uconst 0x2]
    3022                      .dwattr $C$DW$433, DW_AT_accessibility(DW_ACCESS_public)
    3023              
    3024              $C$DW$434       .dwtag  DW_TAG_member
    3025                      .dwattr $C$DW$434, DW_AT_type(*$C$DW$T$72)
    3026                      .dwattr $C$DW$434, DW_AT_name("b1")
    3027                      .dwattr $C$DW$434, DW_AT_TI_symbol_name("_b1")
    3028                      .dwattr $C$DW$434, DW_AT_data_member_location[DW_OP_plus_uconst 0x4]
    3029                      .dwattr $C$DW$434, DW_AT_accessibility(DW_ACCESS_public)
    3030              
    3031              $C$DW$435       .dwtag  DW_TAG_member
    3032                      .dwattr $C$DW$435, DW_AT_type(*$C$DW$T$72)
    3033                      .dwattr $C$DW$435, DW_AT_name("x1")
    3034                      .dwattr $C$DW$435, DW_AT_TI_symbol_name("_x1")
    3035                      .dwattr $C$DW$435, DW_AT_data_member_location[DW_OP_plus_uconst 0x6]
    3036                      .dwattr $C$DW$435, DW_AT_accessibility(DW_ACCESS_public)
    3037              
    3038              $C$DW$436       .dwtag  DW_TAG_member
    3039                      .dwattr $C$DW$436, DW_AT_type(*$C$DW$T$72)
    3040                      .dwattr $C$DW$436, DW_AT_name("y1")
    3041                      .dwattr $C$DW$436, DW_AT_TI_symbol_name("_y1")
    3042                      .dwattr $C$DW$436, DW_AT_data_member_location[DW_OP_plus_uconst 0x8]
    3043                      .dwattr $C$DW$436, DW_AT_accessibility(DW_ACCESS_public)
    3044              
    3045                      .dwendtag $C$DW$T$73
    3046              
    3047              $C$DW$T$131     .dwtag  DW_TAG_typedef
    3048                      .dwattr $C$DW$T$131, DW_AT_name("FILTER_FO_Obj")
    3049                      .dwattr $C$DW$T$131, DW_AT_type(*$C$DW$T$73)
    3050                      .dwattr $C$DW$T$131, DW_AT_language(DW_LANG_C)
    3051              
    3052              
    3053              $C$DW$T$19      .dwtag  DW_TAG_structure_type
    3054                      .dwattr $C$DW$T$19, DW_AT_name("_FILTER_FO_Obj_")
TMS320C2000 Assembler PC v15.12.3 Tue Nov 29 20:40:17 2016

Tools Copyright (c) 1996-2015 Texas Instruments Incorporated
C:\Users\Cameron\AppData\Local\Temp\0172010                          PAGE   59

    3055                      .dwattr $C$DW$T$19, DW_AT_declaration
    3056                      .dwendtag $C$DW$T$19
    3057              
    3058              $C$DW$T$132     .dwtag  DW_TAG_pointer_type
    3059                      .dwattr $C$DW$T$132, DW_AT_type(*$C$DW$T$19)
    3060                      .dwattr $C$DW$T$132, DW_AT_address_class(0x20)
    3061              
    3062              $C$DW$T$133     .dwtag  DW_TAG_typedef
    3063                      .dwattr $C$DW$T$133, DW_AT_name("FILTER_FO_Handle")
    3064                      .dwattr $C$DW$T$133, DW_AT_type(*$C$DW$T$132)
    3065                      .dwattr $C$DW$T$133, DW_AT_language(DW_LANG_C)
    3066              
    3067              
    3068              $C$DW$T$74      .dwtag  DW_TAG_structure_type
    3069                      .dwattr $C$DW$T$74, DW_AT_name("_FLASH_Obj_")
    3070                      .dwattr $C$DW$T$74, DW_AT_byte_size(0x08)
    3071              $C$DW$437       .dwtag  DW_TAG_member
    3072                      .dwattr $C$DW$437, DW_AT_type(*$C$DW$T$22)
    3073                      .dwattr $C$DW$437, DW_AT_name("FOPT")
    3074                      .dwattr $C$DW$437, DW_AT_TI_symbol_name("_FOPT")
    3075                      .dwattr $C$DW$437, DW_AT_data_member_location[DW_OP_plus_uconst 0x0]
    3076                      .dwattr $C$DW$437, DW_AT_accessibility(DW_ACCESS_public)
    3077              
    3078              $C$DW$438       .dwtag  DW_TAG_member
    3079                      .dwattr $C$DW$438, DW_AT_type(*$C$DW$T$22)
    3080                      .dwattr $C$DW$438, DW_AT_name("rsvd_1")
    3081                      .dwattr $C$DW$438, DW_AT_TI_symbol_name("_rsvd_1")
    3082                      .dwattr $C$DW$438, DW_AT_data_member_location[DW_OP_plus_uconst 0x1]
    3083                      .dwattr $C$DW$438, DW_AT_accessibility(DW_ACCESS_public)
    3084              
    3085              $C$DW$439       .dwtag  DW_TAG_member
    3086                      .dwattr $C$DW$439, DW_AT_type(*$C$DW$T$22)
    3087                      .dwattr $C$DW$439, DW_AT_name("FPWR")
    3088                      .dwattr $C$DW$439, DW_AT_TI_symbol_name("_FPWR")
    3089                      .dwattr $C$DW$439, DW_AT_data_member_location[DW_OP_plus_uconst 0x2]
    3090                      .dwattr $C$DW$439, DW_AT_accessibility(DW_ACCESS_public)
    3091              
    3092              $C$DW$440       .dwtag  DW_TAG_member
    3093                      .dwattr $C$DW$440, DW_AT_type(*$C$DW$T$22)
    3094                      .dwattr $C$DW$440, DW_AT_name("FSTATUS")
    3095                      .dwattr $C$DW$440, DW_AT_TI_symbol_name("_FSTATUS")
    3096                      .dwattr $C$DW$440, DW_AT_data_member_location[DW_OP_plus_uconst 0x3]
    3097                      .dwattr $C$DW$440, DW_AT_accessibility(DW_ACCESS_public)
    3098              
    3099              $C$DW$441       .dwtag  DW_TAG_member
    3100                      .dwattr $C$DW$441, DW_AT_type(*$C$DW$T$22)
    3101                      .dwattr $C$DW$441, DW_AT_name("FSTDBYWAIT")
    3102                      .dwattr $C$DW$441, DW_AT_TI_symbol_name("_FSTDBYWAIT")
    3103                      .dwattr $C$DW$441, DW_AT_data_member_location[DW_OP_plus_uconst 0x4]
    3104                      .dwattr $C$DW$441, DW_AT_accessibility(DW_ACCESS_public)
    3105              
    3106              $C$DW$442       .dwtag  DW_TAG_member
    3107                      .dwattr $C$DW$442, DW_AT_type(*$C$DW$T$22)
    3108                      .dwattr $C$DW$442, DW_AT_name("FACTIVEWAIT")
    3109                      .dwattr $C$DW$442, DW_AT_TI_symbol_name("_FACTIVEWAIT")
TMS320C2000 Assembler PC v15.12.3 Tue Nov 29 20:40:17 2016

Tools Copyright (c) 1996-2015 Texas Instruments Incorporated
C:\Users\Cameron\AppData\Local\Temp\0172010                          PAGE   60

    3110                      .dwattr $C$DW$442, DW_AT_data_member_location[DW_OP_plus_uconst 0x5]
    3111                      .dwattr $C$DW$442, DW_AT_accessibility(DW_ACCESS_public)
    3112              
    3113              $C$DW$443       .dwtag  DW_TAG_member
    3114                      .dwattr $C$DW$443, DW_AT_type(*$C$DW$T$22)
    3115                      .dwattr $C$DW$443, DW_AT_name("FBANKWAIT")
    3116                      .dwattr $C$DW$443, DW_AT_TI_symbol_name("_FBANKWAIT")
    3117                      .dwattr $C$DW$443, DW_AT_data_member_location[DW_OP_plus_uconst 0x6]
    3118                      .dwattr $C$DW$443, DW_AT_accessibility(DW_ACCESS_public)
    3119              
    3120              $C$DW$444       .dwtag  DW_TAG_member
    3121                      .dwattr $C$DW$444, DW_AT_type(*$C$DW$T$22)
    3122                      .dwattr $C$DW$444, DW_AT_name("FOTPWAIT")
    3123                      .dwattr $C$DW$444, DW_AT_TI_symbol_name("_FOTPWAIT")
    3124                      .dwattr $C$DW$444, DW_AT_data_member_location[DW_OP_plus_uconst 0x7]
    3125                      .dwattr $C$DW$444, DW_AT_accessibility(DW_ACCESS_public)
    3126              
    3127                      .dwendtag $C$DW$T$74
    3128              
    3129              $C$DW$T$88      .dwtag  DW_TAG_pointer_type
    3130                      .dwattr $C$DW$T$88, DW_AT_type(*$C$DW$T$74)
    3131                      .dwattr $C$DW$T$88, DW_AT_address_class(0x20)
    3132              
    3133              $C$DW$T$89      .dwtag  DW_TAG_typedef
    3134                      .dwattr $C$DW$T$89, DW_AT_name("FLASH_Handle")
    3135                      .dwattr $C$DW$T$89, DW_AT_type(*$C$DW$T$88)
    3136                      .dwattr $C$DW$T$89, DW_AT_language(DW_LANG_C)
    3137              
    3138              
    3139              $C$DW$T$79      .dwtag  DW_TAG_structure_type
    3140                      .dwattr $C$DW$T$79, DW_AT_name("_GPIO_Obj_")
    3141                      .dwattr $C$DW$T$79, DW_AT_byte_size(0x6a)
    3142              $C$DW$445       .dwtag  DW_TAG_member
    3143                      .dwattr $C$DW$445, DW_AT_type(*$C$DW$T$76)
    3144                      .dwattr $C$DW$445, DW_AT_name("GPACTRL")
    3145                      .dwattr $C$DW$445, DW_AT_TI_symbol_name("_GPACTRL")
    3146                      .dwattr $C$DW$445, DW_AT_data_member_location[DW_OP_plus_uconst 0x0]
    3147                      .dwattr $C$DW$445, DW_AT_accessibility(DW_ACCESS_public)
    3148              
    3149              $C$DW$446       .dwtag  DW_TAG_member
    3150                      .dwattr $C$DW$446, DW_AT_type(*$C$DW$T$76)
    3151                      .dwattr $C$DW$446, DW_AT_name("GPAQSEL1")
    3152                      .dwattr $C$DW$446, DW_AT_TI_symbol_name("_GPAQSEL1")
    3153                      .dwattr $C$DW$446, DW_AT_data_member_location[DW_OP_plus_uconst 0x2]
    3154                      .dwattr $C$DW$446, DW_AT_accessibility(DW_ACCESS_public)
    3155              
    3156              $C$DW$447       .dwtag  DW_TAG_member
    3157                      .dwattr $C$DW$447, DW_AT_type(*$C$DW$T$76)
    3158                      .dwattr $C$DW$447, DW_AT_name("GPAQSEL2")
    3159                      .dwattr $C$DW$447, DW_AT_TI_symbol_name("_GPAQSEL2")
    3160                      .dwattr $C$DW$447, DW_AT_data_member_location[DW_OP_plus_uconst 0x4]
    3161                      .dwattr $C$DW$447, DW_AT_accessibility(DW_ACCESS_public)
    3162              
    3163              $C$DW$448       .dwtag  DW_TAG_member
    3164                      .dwattr $C$DW$448, DW_AT_type(*$C$DW$T$76)
TMS320C2000 Assembler PC v15.12.3 Tue Nov 29 20:40:17 2016

Tools Copyright (c) 1996-2015 Texas Instruments Incorporated
C:\Users\Cameron\AppData\Local\Temp\0172010                          PAGE   61

    3165                      .dwattr $C$DW$448, DW_AT_name("GPAMUX1")
    3166                      .dwattr $C$DW$448, DW_AT_TI_symbol_name("_GPAMUX1")
    3167                      .dwattr $C$DW$448, DW_AT_data_member_location[DW_OP_plus_uconst 0x6]
    3168                      .dwattr $C$DW$448, DW_AT_accessibility(DW_ACCESS_public)
    3169              
    3170              $C$DW$449       .dwtag  DW_TAG_member
    3171                      .dwattr $C$DW$449, DW_AT_type(*$C$DW$T$76)
    3172                      .dwattr $C$DW$449, DW_AT_name("GPAMUX2")
    3173                      .dwattr $C$DW$449, DW_AT_TI_symbol_name("_GPAMUX2")
    3174                      .dwattr $C$DW$449, DW_AT_data_member_location[DW_OP_plus_uconst 0x8]
    3175                      .dwattr $C$DW$449, DW_AT_accessibility(DW_ACCESS_public)
    3176              
    3177              $C$DW$450       .dwtag  DW_TAG_member
    3178                      .dwattr $C$DW$450, DW_AT_type(*$C$DW$T$76)
    3179                      .dwattr $C$DW$450, DW_AT_name("GPADIR")
    3180                      .dwattr $C$DW$450, DW_AT_TI_symbol_name("_GPADIR")
    3181                      .dwattr $C$DW$450, DW_AT_data_member_location[DW_OP_plus_uconst 0xa]
    3182                      .dwattr $C$DW$450, DW_AT_accessibility(DW_ACCESS_public)
    3183              
    3184              $C$DW$451       .dwtag  DW_TAG_member
    3185                      .dwattr $C$DW$451, DW_AT_type(*$C$DW$T$76)
    3186                      .dwattr $C$DW$451, DW_AT_name("GPAPUD")
    3187                      .dwattr $C$DW$451, DW_AT_TI_symbol_name("_GPAPUD")
    3188                      .dwattr $C$DW$451, DW_AT_data_member_location[DW_OP_plus_uconst 0xc]
    3189                      .dwattr $C$DW$451, DW_AT_accessibility(DW_ACCESS_public)
    3190              
    3191              $C$DW$452       .dwtag  DW_TAG_member
    3192                      .dwattr $C$DW$452, DW_AT_type(*$C$DW$T$25)
    3193                      .dwattr $C$DW$452, DW_AT_name("rsvd_1")
    3194                      .dwattr $C$DW$452, DW_AT_TI_symbol_name("_rsvd_1")
    3195                      .dwattr $C$DW$452, DW_AT_data_member_location[DW_OP_plus_uconst 0xe]
    3196                      .dwattr $C$DW$452, DW_AT_accessibility(DW_ACCESS_public)
    3197              
    3198              $C$DW$453       .dwtag  DW_TAG_member
    3199                      .dwattr $C$DW$453, DW_AT_type(*$C$DW$T$76)
    3200                      .dwattr $C$DW$453, DW_AT_name("GPBCTRL")
    3201                      .dwattr $C$DW$453, DW_AT_TI_symbol_name("_GPBCTRL")
    3202                      .dwattr $C$DW$453, DW_AT_data_member_location[DW_OP_plus_uconst 0x10]
    3203                      .dwattr $C$DW$453, DW_AT_accessibility(DW_ACCESS_public)
    3204              
    3205              $C$DW$454       .dwtag  DW_TAG_member
    3206                      .dwattr $C$DW$454, DW_AT_type(*$C$DW$T$76)
    3207                      .dwattr $C$DW$454, DW_AT_name("GPBQSEL1")
    3208                      .dwattr $C$DW$454, DW_AT_TI_symbol_name("_GPBQSEL1")
    3209                      .dwattr $C$DW$454, DW_AT_data_member_location[DW_OP_plus_uconst 0x12]
    3210                      .dwattr $C$DW$454, DW_AT_accessibility(DW_ACCESS_public)
    3211              
    3212              $C$DW$455       .dwtag  DW_TAG_member
    3213                      .dwattr $C$DW$455, DW_AT_type(*$C$DW$T$25)
    3214                      .dwattr $C$DW$455, DW_AT_name("rsvd_2")
    3215                      .dwattr $C$DW$455, DW_AT_TI_symbol_name("_rsvd_2")
    3216                      .dwattr $C$DW$455, DW_AT_data_member_location[DW_OP_plus_uconst 0x14]
    3217                      .dwattr $C$DW$455, DW_AT_accessibility(DW_ACCESS_public)
    3218              
    3219              $C$DW$456       .dwtag  DW_TAG_member
TMS320C2000 Assembler PC v15.12.3 Tue Nov 29 20:40:17 2016

Tools Copyright (c) 1996-2015 Texas Instruments Incorporated
C:\Users\Cameron\AppData\Local\Temp\0172010                          PAGE   62

    3220                      .dwattr $C$DW$456, DW_AT_type(*$C$DW$T$76)
    3221                      .dwattr $C$DW$456, DW_AT_name("GPBMUX1")
    3222                      .dwattr $C$DW$456, DW_AT_TI_symbol_name("_GPBMUX1")
    3223                      .dwattr $C$DW$456, DW_AT_data_member_location[DW_OP_plus_uconst 0x16]
    3224                      .dwattr $C$DW$456, DW_AT_accessibility(DW_ACCESS_public)
    3225              
    3226              $C$DW$457       .dwtag  DW_TAG_member
    3227                      .dwattr $C$DW$457, DW_AT_type(*$C$DW$T$25)
    3228                      .dwattr $C$DW$457, DW_AT_name("rsvd_3")
    3229                      .dwattr $C$DW$457, DW_AT_TI_symbol_name("_rsvd_3")
    3230                      .dwattr $C$DW$457, DW_AT_data_member_location[DW_OP_plus_uconst 0x18]
    3231                      .dwattr $C$DW$457, DW_AT_accessibility(DW_ACCESS_public)
    3232              
    3233              $C$DW$458       .dwtag  DW_TAG_member
    3234                      .dwattr $C$DW$458, DW_AT_type(*$C$DW$T$76)
    3235                      .dwattr $C$DW$458, DW_AT_name("GPBDIR")
    3236                      .dwattr $C$DW$458, DW_AT_TI_symbol_name("_GPBDIR")
    3237                      .dwattr $C$DW$458, DW_AT_data_member_location[DW_OP_plus_uconst 0x1a]
    3238                      .dwattr $C$DW$458, DW_AT_accessibility(DW_ACCESS_public)
    3239              
    3240              $C$DW$459       .dwtag  DW_TAG_member
    3241                      .dwattr $C$DW$459, DW_AT_type(*$C$DW$T$76)
    3242                      .dwattr $C$DW$459, DW_AT_name("GPBPUD")
    3243                      .dwattr $C$DW$459, DW_AT_TI_symbol_name("_GPBPUD")
    3244                      .dwattr $C$DW$459, DW_AT_data_member_location[DW_OP_plus_uconst 0x1c]
    3245                      .dwattr $C$DW$459, DW_AT_accessibility(DW_ACCESS_public)
    3246              
    3247              $C$DW$460       .dwtag  DW_TAG_member
    3248                      .dwattr $C$DW$460, DW_AT_type(*$C$DW$T$77)
    3249                      .dwattr $C$DW$460, DW_AT_name("rsvd_4")
    3250                      .dwattr $C$DW$460, DW_AT_TI_symbol_name("_rsvd_4")
    3251                      .dwattr $C$DW$460, DW_AT_data_member_location[DW_OP_plus_uconst 0x1e]
    3252                      .dwattr $C$DW$460, DW_AT_accessibility(DW_ACCESS_public)
    3253              
    3254              $C$DW$461       .dwtag  DW_TAG_member
    3255                      .dwattr $C$DW$461, DW_AT_type(*$C$DW$T$76)
    3256                      .dwattr $C$DW$461, DW_AT_name("AIOMUX1")
    3257                      .dwattr $C$DW$461, DW_AT_TI_symbol_name("_AIOMUX1")
    3258                      .dwattr $C$DW$461, DW_AT_data_member_location[DW_OP_plus_uconst 0x36]
    3259                      .dwattr $C$DW$461, DW_AT_accessibility(DW_ACCESS_public)
    3260              
    3261              $C$DW$462       .dwtag  DW_TAG_member
    3262                      .dwattr $C$DW$462, DW_AT_type(*$C$DW$T$25)
    3263                      .dwattr $C$DW$462, DW_AT_name("rsvd_5")
    3264                      .dwattr $C$DW$462, DW_AT_TI_symbol_name("_rsvd_5")
    3265                      .dwattr $C$DW$462, DW_AT_data_member_location[DW_OP_plus_uconst 0x38]
    3266                      .dwattr $C$DW$462, DW_AT_accessibility(DW_ACCESS_public)
    3267              
    3268              $C$DW$463       .dwtag  DW_TAG_member
    3269                      .dwattr $C$DW$463, DW_AT_type(*$C$DW$T$76)
    3270                      .dwattr $C$DW$463, DW_AT_name("AIODIR")
    3271                      .dwattr $C$DW$463, DW_AT_TI_symbol_name("_AIODIR")
    3272                      .dwattr $C$DW$463, DW_AT_data_member_location[DW_OP_plus_uconst 0x3a]
    3273                      .dwattr $C$DW$463, DW_AT_accessibility(DW_ACCESS_public)
    3274              
TMS320C2000 Assembler PC v15.12.3 Tue Nov 29 20:40:17 2016

Tools Copyright (c) 1996-2015 Texas Instruments Incorporated
C:\Users\Cameron\AppData\Local\Temp\0172010                          PAGE   63

    3275              $C$DW$464       .dwtag  DW_TAG_member
    3276                      .dwattr $C$DW$464, DW_AT_type(*$C$DW$T$78)
    3277                      .dwattr $C$DW$464, DW_AT_name("rsvd_6")
    3278                      .dwattr $C$DW$464, DW_AT_TI_symbol_name("_rsvd_6")
    3279                      .dwattr $C$DW$464, DW_AT_data_member_location[DW_OP_plus_uconst 0x3c]
    3280                      .dwattr $C$DW$464, DW_AT_accessibility(DW_ACCESS_public)
    3281              
    3282              $C$DW$465       .dwtag  DW_TAG_member
    3283                      .dwattr $C$DW$465, DW_AT_type(*$C$DW$T$76)
    3284                      .dwattr $C$DW$465, DW_AT_name("GPADAT")
    3285                      .dwattr $C$DW$465, DW_AT_TI_symbol_name("_GPADAT")
    3286                      .dwattr $C$DW$465, DW_AT_data_member_location[DW_OP_plus_uconst 0x40]
    3287                      .dwattr $C$DW$465, DW_AT_accessibility(DW_ACCESS_public)
    3288              
    3289              $C$DW$466       .dwtag  DW_TAG_member
    3290                      .dwattr $C$DW$466, DW_AT_type(*$C$DW$T$76)
    3291                      .dwattr $C$DW$466, DW_AT_name("GPASET")
    3292                      .dwattr $C$DW$466, DW_AT_TI_symbol_name("_GPASET")
    3293                      .dwattr $C$DW$466, DW_AT_data_member_location[DW_OP_plus_uconst 0x42]
    3294                      .dwattr $C$DW$466, DW_AT_accessibility(DW_ACCESS_public)
    3295              
    3296              $C$DW$467       .dwtag  DW_TAG_member
    3297                      .dwattr $C$DW$467, DW_AT_type(*$C$DW$T$76)
    3298                      .dwattr $C$DW$467, DW_AT_name("GPACLEAR")
    3299                      .dwattr $C$DW$467, DW_AT_TI_symbol_name("_GPACLEAR")
    3300                      .dwattr $C$DW$467, DW_AT_data_member_location[DW_OP_plus_uconst 0x44]
    3301                      .dwattr $C$DW$467, DW_AT_accessibility(DW_ACCESS_public)
    3302              
    3303              $C$DW$468       .dwtag  DW_TAG_member
    3304                      .dwattr $C$DW$468, DW_AT_type(*$C$DW$T$76)
    3305                      .dwattr $C$DW$468, DW_AT_name("GPATOGGLE")
    3306                      .dwattr $C$DW$468, DW_AT_TI_symbol_name("_GPATOGGLE")
    3307                      .dwattr $C$DW$468, DW_AT_data_member_location[DW_OP_plus_uconst 0x46]
    3308                      .dwattr $C$DW$468, DW_AT_accessibility(DW_ACCESS_public)
    3309              
    3310              $C$DW$469       .dwtag  DW_TAG_member
    3311                      .dwattr $C$DW$469, DW_AT_type(*$C$DW$T$76)
    3312                      .dwattr $C$DW$469, DW_AT_name("GPBDAT")
    3313                      .dwattr $C$DW$469, DW_AT_TI_symbol_name("_GPBDAT")
    3314                      .dwattr $C$DW$469, DW_AT_data_member_location[DW_OP_plus_uconst 0x48]
    3315                      .dwattr $C$DW$469, DW_AT_accessibility(DW_ACCESS_public)
    3316              
    3317              $C$DW$470       .dwtag  DW_TAG_member
    3318                      .dwattr $C$DW$470, DW_AT_type(*$C$DW$T$76)
    3319                      .dwattr $C$DW$470, DW_AT_name("GPBSET")
    3320                      .dwattr $C$DW$470, DW_AT_TI_symbol_name("_GPBSET")
    3321                      .dwattr $C$DW$470, DW_AT_data_member_location[DW_OP_plus_uconst 0x4a]
    3322                      .dwattr $C$DW$470, DW_AT_accessibility(DW_ACCESS_public)
    3323              
    3324              $C$DW$471       .dwtag  DW_TAG_member
    3325                      .dwattr $C$DW$471, DW_AT_type(*$C$DW$T$76)
    3326                      .dwattr $C$DW$471, DW_AT_name("GPBCLEAR")
    3327                      .dwattr $C$DW$471, DW_AT_TI_symbol_name("_GPBCLEAR")
    3328                      .dwattr $C$DW$471, DW_AT_data_member_location[DW_OP_plus_uconst 0x4c]
    3329                      .dwattr $C$DW$471, DW_AT_accessibility(DW_ACCESS_public)
TMS320C2000 Assembler PC v15.12.3 Tue Nov 29 20:40:17 2016

Tools Copyright (c) 1996-2015 Texas Instruments Incorporated
C:\Users\Cameron\AppData\Local\Temp\0172010                          PAGE   64

    3330              
    3331              $C$DW$472       .dwtag  DW_TAG_member
    3332                      .dwattr $C$DW$472, DW_AT_type(*$C$DW$T$76)
    3333                      .dwattr $C$DW$472, DW_AT_name("GPBTOGGLE")
    3334                      .dwattr $C$DW$472, DW_AT_TI_symbol_name("_GPBTOGGLE")
    3335                      .dwattr $C$DW$472, DW_AT_data_member_location[DW_OP_plus_uconst 0x4e]
    3336                      .dwattr $C$DW$472, DW_AT_accessibility(DW_ACCESS_public)
    3337              
    3338              $C$DW$473       .dwtag  DW_TAG_member
    3339                      .dwattr $C$DW$473, DW_AT_type(*$C$DW$T$30)
    3340                      .dwattr $C$DW$473, DW_AT_name("rsvd_7")
    3341                      .dwattr $C$DW$473, DW_AT_TI_symbol_name("_rsvd_7")
    3342                      .dwattr $C$DW$473, DW_AT_data_member_location[DW_OP_plus_uconst 0x50]
    3343                      .dwattr $C$DW$473, DW_AT_accessibility(DW_ACCESS_public)
    3344              
    3345              $C$DW$474       .dwtag  DW_TAG_member
    3346                      .dwattr $C$DW$474, DW_AT_type(*$C$DW$T$76)
    3347                      .dwattr $C$DW$474, DW_AT_name("AIODAT")
    3348                      .dwattr $C$DW$474, DW_AT_TI_symbol_name("_AIODAT")
    3349                      .dwattr $C$DW$474, DW_AT_data_member_location[DW_OP_plus_uconst 0x58]
    3350                      .dwattr $C$DW$474, DW_AT_accessibility(DW_ACCESS_public)
    3351              
    3352              $C$DW$475       .dwtag  DW_TAG_member
    3353                      .dwattr $C$DW$475, DW_AT_type(*$C$DW$T$76)
    3354                      .dwattr $C$DW$475, DW_AT_name("AIOSET")
    3355                      .dwattr $C$DW$475, DW_AT_TI_symbol_name("_AIOSET")
    3356                      .dwattr $C$DW$475, DW_AT_data_member_location[DW_OP_plus_uconst 0x5a]
    3357                      .dwattr $C$DW$475, DW_AT_accessibility(DW_ACCESS_public)
    3358              
    3359              $C$DW$476       .dwtag  DW_TAG_member
    3360                      .dwattr $C$DW$476, DW_AT_type(*$C$DW$T$76)
    3361                      .dwattr $C$DW$476, DW_AT_name("AIOCLEAR")
    3362                      .dwattr $C$DW$476, DW_AT_TI_symbol_name("_AIOCLEAR")
    3363                      .dwattr $C$DW$476, DW_AT_data_member_location[DW_OP_plus_uconst 0x5c]
    3364                      .dwattr $C$DW$476, DW_AT_accessibility(DW_ACCESS_public)
    3365              
    3366              $C$DW$477       .dwtag  DW_TAG_member
    3367                      .dwattr $C$DW$477, DW_AT_type(*$C$DW$T$76)
    3368                      .dwattr $C$DW$477, DW_AT_name("AIOTOGGLE")
    3369                      .dwattr $C$DW$477, DW_AT_TI_symbol_name("_AIOTOGGLE")
    3370                      .dwattr $C$DW$477, DW_AT_data_member_location[DW_OP_plus_uconst 0x5e]
    3371                      .dwattr $C$DW$477, DW_AT_accessibility(DW_ACCESS_public)
    3372              
    3373              $C$DW$478       .dwtag  DW_TAG_member
    3374                      .dwattr $C$DW$478, DW_AT_type(*$C$DW$T$27)
    3375                      .dwattr $C$DW$478, DW_AT_name("GPIOXINTnSEL")
    3376                      .dwattr $C$DW$478, DW_AT_TI_symbol_name("_GPIOXINTnSEL")
    3377                      .dwattr $C$DW$478, DW_AT_data_member_location[DW_OP_plus_uconst 0x60]
    3378                      .dwattr $C$DW$478, DW_AT_accessibility(DW_ACCESS_public)
    3379              
    3380              $C$DW$479       .dwtag  DW_TAG_member
    3381                      .dwattr $C$DW$479, DW_AT_type(*$C$DW$T$26)
    3382                      .dwattr $C$DW$479, DW_AT_name("rsvd_8")
    3383                      .dwattr $C$DW$479, DW_AT_TI_symbol_name("_rsvd_8")
    3384                      .dwattr $C$DW$479, DW_AT_data_member_location[DW_OP_plus_uconst 0x63]
TMS320C2000 Assembler PC v15.12.3 Tue Nov 29 20:40:17 2016

Tools Copyright (c) 1996-2015 Texas Instruments Incorporated
C:\Users\Cameron\AppData\Local\Temp\0172010                          PAGE   65

    3385                      .dwattr $C$DW$479, DW_AT_accessibility(DW_ACCESS_public)
    3386              
    3387              $C$DW$480       .dwtag  DW_TAG_member
    3388                      .dwattr $C$DW$480, DW_AT_type(*$C$DW$T$76)
    3389                      .dwattr $C$DW$480, DW_AT_name("GPIOLPMSEL")
    3390                      .dwattr $C$DW$480, DW_AT_TI_symbol_name("_GPIOLPMSEL")
    3391                      .dwattr $C$DW$480, DW_AT_data_member_location[DW_OP_plus_uconst 0x68]
    3392                      .dwattr $C$DW$480, DW_AT_accessibility(DW_ACCESS_public)
    3393              
    3394                      .dwendtag $C$DW$T$79
    3395              
    3396              $C$DW$T$39      .dwtag  DW_TAG_pointer_type
    3397                      .dwattr $C$DW$T$39, DW_AT_type(*$C$DW$T$79)
    3398                      .dwattr $C$DW$T$39, DW_AT_address_class(0x20)
    3399              
    3400              $C$DW$T$40      .dwtag  DW_TAG_typedef
    3401                      .dwattr $C$DW$T$40, DW_AT_name("GPIO_Handle")
    3402                      .dwattr $C$DW$T$40, DW_AT_type(*$C$DW$T$39)
    3403                      .dwattr $C$DW$T$40, DW_AT_language(DW_LANG_C)
    3404              
    3405              
    3406              $C$DW$T$81      .dwtag  DW_TAG_structure_type
    3407                      .dwattr $C$DW$T$81, DW_AT_name("_HAL_AdcData_t_")
    3408                      .dwattr $C$DW$T$81, DW_AT_byte_size(0x0e)
    3409              $C$DW$481       .dwtag  DW_TAG_member
    3410                      .dwattr $C$DW$481, DW_AT_type(*$C$DW$T$80)
    3411                      .dwattr $C$DW$481, DW_AT_name("I")
    3412                      .dwattr $C$DW$481, DW_AT_TI_symbol_name("_I")
    3413                      .dwattr $C$DW$481, DW_AT_data_member_location[DW_OP_plus_uconst 0x0]
    3414                      .dwattr $C$DW$481, DW_AT_accessibility(DW_ACCESS_public)
    3415              
    3416              $C$DW$482       .dwtag  DW_TAG_member
    3417                      .dwattr $C$DW$482, DW_AT_type(*$C$DW$T$80)
    3418                      .dwattr $C$DW$482, DW_AT_name("V")
    3419                      .dwattr $C$DW$482, DW_AT_TI_symbol_name("_V")
    3420                      .dwattr $C$DW$482, DW_AT_data_member_location[DW_OP_plus_uconst 0x6]
    3421                      .dwattr $C$DW$482, DW_AT_accessibility(DW_ACCESS_public)
    3422              
    3423              $C$DW$483       .dwtag  DW_TAG_member
    3424                      .dwattr $C$DW$483, DW_AT_type(*$C$DW$T$72)
    3425                      .dwattr $C$DW$483, DW_AT_name("dcBus")
    3426                      .dwattr $C$DW$483, DW_AT_TI_symbol_name("_dcBus")
    3427                      .dwattr $C$DW$483, DW_AT_data_member_location[DW_OP_plus_uconst 0xc]
    3428                      .dwattr $C$DW$483, DW_AT_accessibility(DW_ACCESS_public)
    3429              
    3430                      .dwendtag $C$DW$T$81
    3431              
    3432              $C$DW$T$111     .dwtag  DW_TAG_typedef
    3433                      .dwattr $C$DW$T$111, DW_AT_name("HAL_AdcData_t")
    3434                      .dwattr $C$DW$T$111, DW_AT_type(*$C$DW$T$81)
    3435                      .dwattr $C$DW$T$111, DW_AT_language(DW_LANG_C)
    3436              
    3437              
    3438              $C$DW$T$118     .dwtag  DW_TAG_structure_type
    3439                      .dwattr $C$DW$T$118, DW_AT_name("_HAL_Obj_")
TMS320C2000 Assembler PC v15.12.3 Tue Nov 29 20:40:17 2016

Tools Copyright (c) 1996-2015 Texas Instruments Incorporated
C:\Users\Cameron\AppData\Local\Temp\0172010                          PAGE   66

    3440                      .dwattr $C$DW$T$118, DW_AT_byte_size(0xc4)
    3441              $C$DW$484       .dwtag  DW_TAG_member
    3442                      .dwattr $C$DW$484, DW_AT_type(*$C$DW$T$83)
    3443                      .dwattr $C$DW$484, DW_AT_name("adcHandle")
    3444                      .dwattr $C$DW$484, DW_AT_TI_symbol_name("_adcHandle")
    3445                      .dwattr $C$DW$484, DW_AT_data_member_location[DW_OP_plus_uconst 0x0]
    3446                      .dwattr $C$DW$484, DW_AT_accessibility(DW_ACCESS_public)
    3447              
    3448              $C$DW$485       .dwtag  DW_TAG_member
    3449                      .dwattr $C$DW$485, DW_AT_type(*$C$DW$T$85)
    3450                      .dwattr $C$DW$485, DW_AT_name("clkHandle")
    3451                      .dwattr $C$DW$485, DW_AT_TI_symbol_name("_clkHandle")
    3452                      .dwattr $C$DW$485, DW_AT_data_member_location[DW_OP_plus_uconst 0x2]
    3453                      .dwattr $C$DW$485, DW_AT_accessibility(DW_ACCESS_public)
    3454              
    3455              $C$DW$486       .dwtag  DW_TAG_member
    3456                      .dwattr $C$DW$486, DW_AT_type(*$C$DW$T$87)
    3457                      .dwattr $C$DW$486, DW_AT_name("cpuHandle")
    3458                      .dwattr $C$DW$486, DW_AT_TI_symbol_name("_cpuHandle")
    3459                      .dwattr $C$DW$486, DW_AT_data_member_location[DW_OP_plus_uconst 0x4]
    3460                      .dwattr $C$DW$486, DW_AT_accessibility(DW_ACCESS_public)
    3461              
    3462              $C$DW$487       .dwtag  DW_TAG_member
    3463                      .dwattr $C$DW$487, DW_AT_type(*$C$DW$T$89)
    3464                      .dwattr $C$DW$487, DW_AT_name("flashHandle")
    3465                      .dwattr $C$DW$487, DW_AT_TI_symbol_name("_flashHandle")
    3466                      .dwattr $C$DW$487, DW_AT_data_member_location[DW_OP_plus_uconst 0x6]
    3467                      .dwattr $C$DW$487, DW_AT_accessibility(DW_ACCESS_public)
    3468              
    3469              $C$DW$488       .dwtag  DW_TAG_member
    3470                      .dwattr $C$DW$488, DW_AT_type(*$C$DW$T$40)
    3471                      .dwattr $C$DW$488, DW_AT_name("gpioHandle")
    3472                      .dwattr $C$DW$488, DW_AT_TI_symbol_name("_gpioHandle")
    3473                      .dwattr $C$DW$488, DW_AT_data_member_location[DW_OP_plus_uconst 0x8]
    3474                      .dwattr $C$DW$488, DW_AT_accessibility(DW_ACCESS_public)
    3475              
    3476              $C$DW$489       .dwtag  DW_TAG_member
    3477                      .dwattr $C$DW$489, DW_AT_type(*$C$DW$T$92)
    3478                      .dwattr $C$DW$489, DW_AT_name("offsetHandle_I")
    3479                      .dwattr $C$DW$489, DW_AT_TI_symbol_name("_offsetHandle_I")
    3480                      .dwattr $C$DW$489, DW_AT_data_member_location[DW_OP_plus_uconst 0xa]
    3481                      .dwattr $C$DW$489, DW_AT_accessibility(DW_ACCESS_public)
    3482              
    3483              $C$DW$490       .dwtag  DW_TAG_member
    3484                      .dwattr $C$DW$490, DW_AT_type(*$C$DW$T$94)
    3485                      .dwattr $C$DW$490, DW_AT_name("offset_I")
    3486                      .dwattr $C$DW$490, DW_AT_TI_symbol_name("_offset_I")
